(dp1
S'wildlife'
p2
(dp3
(S'Nikon D300'
cnumpy.core.multiarray
scalar
p4
(cnumpy
dtype
p5
(S'f8'
I0
I1
tRp6
(I3
S'<'
NNNI-1
I-1
I0
tbS'B\xd7v\x86\xe4\xed\x9a?'
tRp7
tp8
(lp9
(dp10
S'source'
p11
S'http://farm5.staticflickr.com/4142/4761391441_4a7f1e7d78_q.jpg'
p12
sS'id'
p13
S'4761391441'
p14
sa(dp15
g11
S'http://farm3.staticflickr.com/2185/2222846422_78d5364225_q.jpg'
p16
sg13
S'2222846422'
p17
sa(dp18
g11
S'http://farm7.staticflickr.com/6231/6294453879_2c4b50b089_q.jpg'
p19
sg13
S'6294453879'
p20
sa(dp21
g11
S'http://farm5.staticflickr.com/4102/4863225435_e860b4b334_q.jpg'
p22
sg13
S'4863225435'
p23
sa(dp24
g11
S'http://farm5.staticflickr.com/4085/5031363670_6cd1e984f3_q.jpg'
p25
sg13
S'5031363670'
p26
sa(dp27
g11
S'http://farm4.staticflickr.com/3538/3497051952_4310f13fe2_q.jpg'
p28
sg13
S'3497051952'
p29
sa(dp30
g11
S'http://farm4.staticflickr.com/3127/2557243867_c64b46b2c3_q.jpg'
p31
sg13
S'2557243867'
p32
sa(dp33
g11
S'http://farm3.staticflickr.com/2470/3705878605_50f7a4a469_q.jpg'
p34
sg13
S'3705878605'
p35
sa(dp36
g11
S'http://farm2.staticflickr.com/1366/5103507600_76f92d6c79_q.jpg'
p37
sg13
S'5103507600'
p38
sa(dp39
g11
S'http://farm5.staticflickr.com/4142/4891077372_5f62ed82a0_q.jpg'
p40
sg13
S'4891077372'
p41
sas(S'Canon EOS 7D'
g4
(g6
S'\xb5\n^\xde\x85\xf5\x9f?'
tRp42
tp43
(lp44
(dp45
g11
S'http://farm5.staticflickr.com/4135/4824025773_f02340d74b_q.jpg'
p46
sg13
S'4824025773'
p47
sa(dp48
g11
S'http://farm8.staticflickr.com/7019/6606300495_e7de2a9af0_q.jpg'
p49
sg13
S'6606300495'
p50
sa(dp51
g11
S'http://farm3.staticflickr.com/2728/4462067409_5c681f1fcc_q.jpg'
p52
sg13
S'4462067409'
p53
sa(dp54
g11
S'http://farm8.staticflickr.com/7056/6874616815_89f65508ed_q.jpg'
p55
sg13
S'6874616815'
p56
sa(dp57
g11
S'http://farm7.staticflickr.com/6027/5931005984_0364fbef44_q.jpg'
p58
sg13
S'5931005984'
p59
sa(dp60
g11
S'http://farm5.staticflickr.com/4041/4281836536_2ca83c2602_q.jpg'
p61
sg13
S'4281836536'
p62
sa(dp63
g11
S'http://farm5.staticflickr.com/4083/4951270555_55d139c906_q.jpg'
p64
sg13
S'4951270555'
p65
sa(dp66
g11
S'http://farm9.staticflickr.com/8229/8599066951_654f220755_q.jpg'
p67
sg13
S'8599066951'
p68
sa(dp69
g11
S'http://farm9.staticflickr.com/8325/8134419938_44f8368434_q.jpg'
p70
sg13
S'8134419938'
p71
sa(dp72
g11
S'http://farm7.staticflickr.com/6117/6237601418_eb226d9bd8_q.jpg'
p73
sg13
S'6237601418'
p74
sas(S'Canon EOS 30D'
g4
(g6
S'B\xfc|\x01%I\x8e?'
tRp75
tp76
(lp77
(dp78
g11
S'http://farm4.staticflickr.com/3661/3326551830_7c70bfbf70_q.jpg'
p79
sg13
S'3326551830'
p80
sa(dp81
g11
S'http://farm4.staticflickr.com/3340/3440460075_ae7b1b9763_q.jpg'
p82
sg13
S'3440460075'
p83
sa(dp84
g11
S'http://farm2.staticflickr.com/1268/564021921_744e87e9e2_q.jpg'
p85
sg13
S'564021921'
p86
sa(dp87
g11
S'http://farm2.staticflickr.com/1264/537532650_e1dd1011d4_q.jpg'
p88
sg13
S'537532650'
p89
sa(dp90
g11
S'http://farm3.staticflickr.com/2474/3915413518_385a620d8b_q.jpg'
p91
sg13
S'3915413518'
p92
sa(dp93
g11
S'http://farm4.staticflickr.com/3557/3360651816_526cb4faeb_q.jpg'
p94
sg13
S'3360651816'
p95
sa(dp96
g11
S'http://farm4.staticflickr.com/3133/3197164352_3635a1f7fa_q.jpg'
p97
sg13
S'3197164352'
p98
sa(dp99
g11
S'http://farm1.staticflickr.com/79/240248840_c6814f2480_q.jpg'
p100
sg13
S'240248840'
p101
sa(dp102
g11
S'http://farm4.staticflickr.com/3031/3080395402_5cccb1cb63_q.jpg'
p103
sg13
S'3080395402'
p104
sa(dp105
g11
S'http://farm1.staticflickr.com/93/259095747_c395ae3eb1_q.jpg'
p106
sg13
S'259095747'
p107
sas(S'Canon EOS-1D Mark IV'
g4
(g6
S'\x86\xc0\x07\x8e\xfa\xe8\x89?'
tRp108
tp109
(lp110
(dp111
g11
S'http://farm7.staticflickr.com/6218/6349986309_5249fc1f03_q.jpg'
p112
sg13
S'6349986309'
p113
sa(dp114
g11
S'http://farm2.staticflickr.com/1376/5105389832_1be0c0241d_q.jpg'
p115
sg13
S'5105389832'
p116
sa(dp117
g11
S'http://farm6.staticflickr.com/5341/6924947888_b19c6ee9e5_q.jpg'
p118
sg13
S'6924947888'
p119
sa(dp120
g11
S'http://farm5.staticflickr.com/4046/4636470688_5af6ff7f58_q.jpg'
p121
sg13
S'4636470688'
p122
sa(dp123
g11
S'http://farm5.staticflickr.com/4056/4647474843_69e781b8b5_q.jpg'
p124
sg13
S'4647474843'
p125
sa(dp126
g11
S'http://farm8.staticflickr.com/7014/6744089099_c554f85f2e_q.jpg'
p127
sg13
S'6744089099'
p128
sa(dp129
g11
S'http://farm5.staticflickr.com/4126/4964455924_e4bc564913_q.jpg'
p130
sg13
S'4964455924'
p131
sa(dp132
g11
S'http://farm7.staticflickr.com/6028/6002251106_ac4bc345c1_q.jpg'
p133
sg13
S'6002251106'
p134
sa(dp135
g11
S'http://farm6.staticflickr.com/5029/5661085795_5c77b947c5_q.jpg'
p136
sg13
S'5661085795'
p137
sa(dp138
g11
S'http://farm6.staticflickr.com/5134/5585701476_774d9e2d8a_q.jpg'
p139
sg13
S'5585701476'
p140
sas(S'Nikon D200'
g4
(g6
S'\xcb\xa9\x140\x85\xaf\x8b?'
tRp141
tp142
(lp143
(dp144
g11
S'http://farm8.staticflickr.com/7150/6749200633_7892159656_q.jpg'
p145
sg13
S'6749200633'
p146
sa(dp147
g11
S'http://farm6.staticflickr.com/5201/5367908760_5c5b8d6203_q.jpg'
p148
sg13
S'5367908760'
p149
sa(dp150
g11
S'http://farm8.staticflickr.com/7031/6555373293_1d11c72dd9_q.jpg'
p151
sg13
S'6555373293'
p152
sa(dp153
g11
S'http://farm7.staticflickr.com/6035/6379538751_4a4f946b46_q.jpg'
p154
sg13
S'6379538751'
p155
sa(dp156
g11
S'http://farm1.staticflickr.com/207/488435693_e957397db0_q.jpg'
p157
sg13
S'488435693'
p158
sa(dp159
g11
S'http://farm4.staticflickr.com/3642/3632681654_b6822367af_q.jpg'
p160
sg13
S'3632681654'
p161
sa(dp162
g11
S'http://farm8.staticflickr.com/7161/6442602799_a58f8d354a_q.jpg'
p163
sg13
S'6442602799'
p164
sa(dp165
g11
S'http://farm5.staticflickr.com/4051/4347675112_c55ff48db6_q.jpg'
p166
sg13
S'4347675112'
p167
sa(dp168
g11
S'http://farm8.staticflickr.com/7100/7134487403_4d2fa07000_q.jpg'
p169
sg13
S'7134487403'
p170
sa(dp171
g11
S'http://farm6.staticflickr.com/5256/5429792130_885219195d_q.jpg'
p172
sg13
S'5429792130'
p173
sas(S'Canon EOS 40D'
g4
(g6
S'\xc3\xc6\xcel\x8d\x84\x93?'
tRp174
tp175
(lp176
(dp177
g11
S'http://farm3.staticflickr.com/2753/4435326649_c2c667cc38_q.jpg'
p178
sg13
S'4435326649'
p179
sa(dp180
g11
S'http://farm3.staticflickr.com/2587/3959338718_dd09c098c5_q.jpg'
p181
sg13
S'3959338718'
p182
sa(dp183
g11
S'http://farm4.staticflickr.com/3280/3066304002_1fb10c0735_q.jpg'
p184
sg13
S'3066304002'
p185
sa(dp186
g11
S'http://farm4.staticflickr.com/3095/3202066054_93bea1c15e_q.jpg'
p187
sg13
S'3202066054'
p188
sa(dp189
g11
S'http://farm4.staticflickr.com/3212/2515947607_30dd82a92d_q.jpg'
p190
sg13
S'2515947607'
p191
sa(dp192
g11
S'http://farm4.staticflickr.com/3257/3163013413_5b595486d8_q.jpg'
p193
sg13
S'3163013413'
p194
sa(dp195
g11
S'http://farm4.staticflickr.com/3470/3295906270_22b827a407_q.jpg'
p196
sg13
S'3295906270'
p197
sa(dp198
g11
S'http://farm4.staticflickr.com/3464/3877698519_f176c81962_q.jpg'
p199
sg13
S'3877698519'
p200
sa(dp201
g11
S'http://farm3.staticflickr.com/2623/3864735227_337b28a376_q.jpg'
p202
sg13
S'3864735227'
p203
sa(dp204
g11
S'http://farm4.staticflickr.com/3049/3050800244_cd3ff3c037_q.jpg'
p205
sg13
S'3050800244'
p206
sas(S'Canon EOS 20D'
g4
(g6
S'\xb3\x07lkB\x8b\x96?'
tRp207
tp208
(lp209
(dp210
g11
S'http://farm4.staticflickr.com/3607/3534521190_388cfbf73c_q.jpg'
p211
sg13
S'3534521190'
p212
sa(dp213
g11
S'http://farm4.staticflickr.com/3288/2990894085_dfbcc00afc_q.jpg'
p214
sg13
S'2990894085'
p215
sa(dp216
g11
S'http://farm2.staticflickr.com/1194/1208040355_c3a1cc4747_q.jpg'
p217
sg13
S'1208040355'
p218
sa(dp219
g11
S'http://farm3.staticflickr.com/2234/2324065607_1b23fd5a2e_q.jpg'
p220
sg13
S'2324065607'
p221
sa(dp222
g11
S'http://farm4.staticflickr.com/3060/2432854239_5272401cfe_q.jpg'
p223
sg13
S'2432854239'
p224
sa(dp225
g11
S'http://farm1.staticflickr.com/74/168435621_fcde06e49e_q.jpg'
p226
sg13
S'168435621'
p227
sa(dp228
g11
S'http://farm1.staticflickr.com/241/458980536_bd8a3fd48b_q.jpg'
p229
sg13
S'458980536'
p230
sa(dp231
g11
S'http://farm3.staticflickr.com/2542/3685560684_5a3361a8b0_q.jpg'
p232
sg13
S'3685560684'
p233
sa(dp234
g11
S'http://farm1.staticflickr.com/218/445267544_992df924aa_q.jpg'
p235
sg13
S'445267544'
p236
sa(dp237
g11
S'http://farm3.staticflickr.com/2018/2087651433_c20ec7e395_q.jpg'
p238
sg13
S'2087651433'
p239
sas(S'Canon EOS 5D Mark II'
g4
(g6
S'\x02K\xf6\xfa\x08\xdd\x9c?'
tRp240
tp241
(lp242
(dp243
g11
S'http://farm7.staticflickr.com/6138/6008145586_8752c05edc_q.jpg'
p244
sg13
S'6008145586'
p245
sa(dp246
g11
S'http://farm2.staticflickr.com/1407/5114048088_cd49245508_q.jpg'
p247
sg13
S'5114048088'
p248
sa(dp249
g11
S'http://farm8.staticflickr.com/7077/7174848676_200b4b5a19_q.jpg'
p250
sg13
S'7174848676'
p251
sa(dp252
g11
S'http://farm7.staticflickr.com/6009/5943161471_39394654d0_q.jpg'
p253
sg13
S'5943161471'
p254
sa(dp255
g11
S'http://farm3.staticflickr.com/2475/3968835225_7ba9c080d5_q.jpg'
p256
sg13
S'3968835225'
p257
sa(dp258
g11
S'http://farm5.staticflickr.com/4088/5099003608_11bb2a135b_q.jpg'
p259
sg13
S'5099003608'
p260
sa(dp261
g11
S'http://farm7.staticflickr.com/6031/6308644276_b547710068_q.jpg'
p262
sg13
S'6308644276'
p263
sa(dp264
g11
S'http://farm6.staticflickr.com/5224/5623891746_1d10d66b2a_q.jpg'
p265
sg13
S'5623891746'
p266
sa(dp267
g11
S'http://farm8.staticflickr.com/7171/6794514775_9c2cd79f2d_q.jpg'
p268
sg13
S'6794514775'
p269
sa(dp270
g11
S'http://farm5.staticflickr.com/4072/4434596193_3648990975_q.jpg'
p271
sg13
S'4434596193'
p272
sas(S'Nikon D3'
g4
(g6
S'\x1a5\x90\x0c_\xec\x97?'
tRp273
tp274
(lp275
(dp276
g11
S'http://farm5.staticflickr.com/4082/4865289455_7f7a7ec829_q.jpg'
p277
sg13
S'4865289455'
p278
sa(dp279
g11
S'http://farm6.staticflickr.com/5205/5234428476_1b62623618_q.jpg'
p280
sg13
S'5234428476'
p281
sa(dp282
g11
S'http://farm5.staticflickr.com/4146/4953744182_24686cc985_q.jpg'
p283
sg13
S'4953744182'
p284
sa(dp285
g11
S'http://farm5.staticflickr.com/4083/4964510674_140931a8e0_q.jpg'
p286
sg13
S'4964510674'
p287
sa(dp288
g11
S'http://farm7.staticflickr.com/6115/6376955007_af5e190e8f_q.jpg'
p289
sg13
S'6376955007'
p290
sa(dp291
g11
S'http://farm7.staticflickr.com/6085/6043633815_4716ea0698_q.jpg'
p292
sg13
S'6043633815'
p293
sa(dp294
g11
S'http://farm4.staticflickr.com/3280/5750512012_c4e4cc9e42_q.jpg'
p295
sg13
S'5750512012'
p296
sa(dp297
g11
S'http://farm5.staticflickr.com/4133/5142598234_4b68c7699c_q.jpg'
p298
sg13
S'5142598234'
p299
sa(dp300
g11
S'http://farm5.staticflickr.com/4110/5035599973_dbdbb2bd7a_q.jpg'
p301
sg13
S'5035599973'
p302
sa(dp303
g11
S'http://farm5.staticflickr.com/4106/5183698985_3de62cc43d_q.jpg'
p304
sg13
S'5183698985'
p305
sas(S'Nikon D90'
g4
(g6
S'\x01K\xa9v\xff\xc5\x87?'
tRp306
tp307
(lp308
(dp309
g11
S'http://farm4.staticflickr.com/3535/3814549670_5fc534c7e2_q.jpg'
p310
sg13
S'3814549670'
p311
sa(dp312
g11
S'http://farm8.staticflickr.com/7180/6915653255_8b9d324a2b_q.jpg'
p313
sg13
S'6915653255'
p314
sa(dp315
g11
S'http://farm5.staticflickr.com/4087/5218675956_13d7c5c111_q.jpg'
p316
sg13
S'5218675956'
p317
sa(dp318
g11
S'http://farm8.staticflickr.com/7255/7605038914_5b8837a2e5_q.jpg'
p319
sg13
S'7605038914'
p320
sa(dp321
g11
S'http://farm4.staticflickr.com/3485/3748425439_55d6b1f218_q.jpg'
p322
sg13
S'3748425439'
p323
sa(dp324
g11
S'http://farm3.staticflickr.com/2595/3955615427_4a948a31a0_q.jpg'
p325
sg13
S'3955615427'
p326
sa(dp327
g11
S'http://farm3.staticflickr.com/2386/3532085228_b4959b0c15_q.jpg'
p328
sg13
S'3532085228'
p329
sa(dp330
g11
S'http://farm4.staticflickr.com/3312/4628851140_56ab871141_q.jpg'
p331
sg13
S'4628851140'
p332
sa(dp333
g11
S'http://farm4.staticflickr.com/3424/3405196223_1305590a65_q.jpg'
p334
sg13
S'3405196223'
p335
sa(dp336
g11
S'http://farm5.staticflickr.com/4048/4513975573_2dbebb0dde_q.jpg'
p337
sg13
S'4513975573'
p338
sassS'art'
p339
(dp340
(S'Canon EOS 40D'
g4
(g6
S'\x07e\x03\xd5\xfbj\x86?'
tRp341
tp342
(lp343
(dp344
g11
S'http://farm4.staticflickr.com/3067/2968547143_bbc2d25d17_q.jpg'
p345
sg13
S'2968547143'
p346
sa(dp347
g11
S'http://farm3.staticflickr.com/2055/2074297513_e11f656eef_q.jpg'
p348
sg13
S'2074297513'
p349
sa(dp350
g11
S'http://farm3.staticflickr.com/2651/3983495601_97d126df5b_q.jpg'
p351
sg13
S'3983495601'
p352
sa(dp353
g11
S'http://farm4.staticflickr.com/3537/3506662435_f50a7b9b90_q.jpg'
p354
sg13
S'3506662435'
p355
sa(dp356
g11
S'http://farm4.staticflickr.com/3395/3613139939_b675f22146_q.jpg'
p357
sg13
S'3613139939'
p358
sa(dp359
g11
S'http://farm4.staticflickr.com/3604/3420179255_daa7bf0698_q.jpg'
p360
sg13
S'3420179255'
p361
sa(dp362
g11
S'http://farm4.staticflickr.com/3439/3855931262_d4e87ce22d_q.jpg'
p363
sg13
S'3855931262'
p364
sa(dp365
g11
S'http://farm4.staticflickr.com/3119/2638476026_140d2ecbce_q.jpg'
p366
sg13
S'2638476026'
p367
sa(dp368
g11
S'http://farm3.staticflickr.com/2799/4119311910_2c17621997_q.jpg'
p369
sg13
S'4119311910'
p370
sas(S'Nikon D80'
g4
(g6
S'^\x92C\xd3WA\x86?'
tRp371
tp372
(lp373
(dp374
g11
S'http://farm4.staticflickr.com/3369/3624337047_0acbcd3212_q.jpg'
p375
sg13
S'3624337047'
p376
sa(dp377
g11
S'http://farm4.staticflickr.com/3235/3104475168_e4050ba4d4_q.jpg'
p378
sg13
S'3104475168'
p379
sa(dp380
g11
S'http://farm4.staticflickr.com/3322/3517559597_dfb1c3c368_q.jpg'
p381
sg13
S'3517559597'
p382
sa(dp383
g11
S'http://farm3.staticflickr.com/2286/2380903904_52c3de6ff1_q.jpg'
p384
sg13
S'2380903904'
p385
sa(dp386
g11
S'http://farm4.staticflickr.com/3049/3011652587_1726bed927_q.jpg'
p387
sg13
S'3011652587'
p388
sa(dp389
g11
S'http://farm5.staticflickr.com/4147/4835397954_89f0b0821d_q.jpg'
p390
sg13
S'4835397954'
p391
sas(S'Canon EOS 5D Mark II'
g4
(g6
S'r!E\xf1\x81z\xac?'
tRp392
tp393
(lp394
(dp395
g11
S'http://farm5.staticflickr.com/4094/4763060841_1f6cc1663e_q.jpg'
p396
sg13
S'4763060841'
p397
sa(dp398
g11
S'http://farm5.staticflickr.com/4055/4564780513_13a2c65e07_q.jpg'
p399
sg13
S'4564780513'
p400
sa(dp401
g11
S'http://farm4.staticflickr.com/3314/5735893153_f99df51a9f_q.jpg'
p402
sg13
S'5735893153'
p403
sa(dp404
g11
S'http://farm8.staticflickr.com/7169/6634250857_6a12f089fb_q.jpg'
p405
sg13
S'6634250857'
p406
sa(dp407
g11
S'http://farm6.staticflickr.com/5009/5204997413_89008e51b2_q.jpg'
p408
sg13
S'5204997413'
p409
sa(dp410
g11
S'http://farm5.staticflickr.com/4095/4830102485_547053b4b9_q.jpg'
p411
sg13
S'4830102485'
p412
sa(dp413
g11
S'http://farm8.staticflickr.com/7207/6917838169_5e2004da39_q.jpg'
p414
sg13
S'6917838169'
p415
sa(dp416
g11
S'http://farm5.staticflickr.com/4072/4300612662_79b715562c_q.jpg'
p417
sg13
S'4300612662'
p418
sa(dp419
g11
S'http://farm5.staticflickr.com/4005/4635564278_a4ecc699c2_q.jpg'
p420
sg13
S'4635564278'
p421
sa(dp422
g11
S'http://farm8.staticflickr.com/7150/6534007889_77642f6724_q.jpg'
p423
sg13
S'6534007889'
p424
sas(S'Canon EOS 50D'
g4
(g6
S'\xa6H\xeb=}\xf9\x8f?'
tRp425
tp426
(lp427
(dp428
g11
S'http://farm5.staticflickr.com/4012/4536902551_d46509bb42_q.jpg'
p429
sg13
S'4536902551'
p430
sa(dp431
g11
S'http://farm4.staticflickr.com/3242/2988593104_def9336543_q.jpg'
p432
sg13
S'2988593104'
p433
sa(dp434
g11
S'http://farm6.staticflickr.com/5041/5376990179_684970449d_q.jpg'
p435
sg13
S'5376990179'
p436
sa(dp437
g11
S'http://farm5.staticflickr.com/4151/4953762704_03bb46d17c_q.jpg'
p438
sg13
S'4953762704'
p439
sa(dp440
g11
S'http://farm5.staticflickr.com/4011/4548650039_bc7456d51b_q.jpg'
p441
sg13
S'4548650039'
p442
sa(dp443
g11
S'http://farm5.staticflickr.com/4085/5058396477_3180b1f9cf_q.jpg'
p444
sg13
S'5058396477'
p445
sa(dp446
g11
S'http://farm3.staticflickr.com/2494/3804831303_12c1c87c9e_q.jpg'
p447
sg13
S'3804831303'
p448
sa(dp449
g11
S'http://farm5.staticflickr.com/4035/4223554509_7b486534cd_q.jpg'
p450
sg13
S'4223554509'
p451
sa(dp452
g11
S'http://farm5.staticflickr.com/4081/4897258800_8383a24af7_q.jpg'
p453
sg13
S'4897258800'
p454
sa(dp455
g11
S'http://farm5.staticflickr.com/4147/4986043220_af8848cf83_q.jpg'
p456
sg13
S'4986043220'
p457
sas(S'Fujifilm FinePix S100fs'
g4
(g6
S'\x7fj\x1fx\xb0R\x7f?'
tRp458
tp459
(lp460
(dp461
g11
S'http://farm4.staticflickr.com/3234/2619641501_072d9a9a26_q.jpg'
p462
sg13
S'2619641501'
p463
sa(dp464
g11
S'http://farm4.staticflickr.com/3144/3070611020_33eacfecbf_q.jpg'
p465
sg13
S'3070611020'
p466
sa(dp467
g11
S'http://farm4.staticflickr.com/3301/3513516394_de22efef36_q.jpg'
p468
sg13
S'3513516394'
p469
sa(dp470
g11
S'http://farm4.staticflickr.com/3127/2630535974_d5a0c70135_q.jpg'
p471
sg13
S'2630535974'
p472
sas(S'Canon EOS 7D'
g4
(g6
S'\xe2M\xe4K2\x82{?'
tRp473
tp474
(lp475
(dp476
g11
S'http://farm7.staticflickr.com/6193/6123756491_1ed99bc186_q.jpg'
p477
sg13
S'6123756491'
p478
sa(dp479
g11
S'http://farm8.staticflickr.com/7036/6970971379_574a359d92_q.jpg'
p480
sg13
S'6970971379'
p481
sa(dp482
g11
S'http://farm3.staticflickr.com/2625/4013376615_cc8ac16ac4_q.jpg'
p483
sg13
S'4013376615'
p484
sa(dp485
g11
S'http://farm3.staticflickr.com/2752/4049434751_ca3e2e3885_q.jpg'
p486
sg13
S'4049434751'
p487
sa(dp488
g11
S'http://farm4.staticflickr.com/3139/3004363974_64d615f4ab_q.jpg'
p489
sg13
S'3004363974'
p490
sa(dp491
g11
S'http://farm3.staticflickr.com/2777/4058426598_c2e99b3430_q.jpg'
p492
sg13
S'4058426598'
p493
sa(dp494
g11
S'http://farm5.staticflickr.com/4073/4893808422_8f0580450a_q.jpg'
p495
sg13
S'4893808422'
p496
sa(dp497
g11
S'http://farm3.staticflickr.com/2658/4060183747_4417c50e10_q.jpg'
p498
sg13
S'4060183747'
p499
sa(dp500
g11
S'http://farm5.staticflickr.com/4097/4848780189_d71f5559da_q.jpg'
p501
sg13
S'4848780189'
p502
sa(dp503
g11
S'http://farm6.staticflickr.com/5027/5634278063_2c5c8b0d53_q.jpg'
p504
sg13
S'5634278063'
p505
sas(S'Nikon D700'
g4
(g6
S'\x14+1\xc9M\xd6\x9b?'
tRp506
tp507
(lp508
(dp509
g11
S'http://farm5.staticflickr.com/4116/4882097239_d9e30a2c48_q.jpg'
p510
sg13
S'4882097239'
p511
sa(dp512
g11
S'http://farm8.staticflickr.com/7093/7190272344_a10e3e36f3_q.jpg'
p513
sg13
S'7190272344'
p514
sa(dp515
g11
S'http://farm9.staticflickr.com/8322/8032195208_a366cf6a63_q.jpg'
p516
sg13
S'8032195208'
p517
sa(dp518
g11
S'http://farm4.staticflickr.com/3380/3597786267_56bd440c90_q.jpg'
p519
sg13
S'3597786267'
p520
sa(dp521
g11
S'http://farm5.staticflickr.com/4084/4963965458_688ede87be_q.jpg'
p522
sg13
S'4963965458'
p523
sa(dp524
g11
S'http://farm9.staticflickr.com/8162/7612589054_43b7b646d1_q.jpg'
p525
sg13
S'7612589054'
p526
sa(dp527
g11
S'http://farm9.staticflickr.com/8517/8498895234_63bb11a55d_q.jpg'
p528
sg13
S'8498895234'
p529
sa(dp530
g11
S'http://farm4.staticflickr.com/3385/3272509748_6ff19b8cb2_q.jpg'
p531
sg13
S'3272509748'
p532
sa(dp533
g11
S'http://farm9.staticflickr.com/8340/8188108846_321aa65798_q.jpg'
p534
sg13
S'8188108846'
p535
sa(dp536
g11
S'http://farm9.staticflickr.com/8320/8062924745_f6cde3877c_q.jpg'
p537
sg13
S'8062924745'
p538
sas(S'Nikon D70s'
g4
(g6
S'\t\xc9\xaa\xaa\xa3\xae\x9a?'
tRp539
tp540
(lp541
(dp542
g11
S'http://farm3.staticflickr.com/2675/3883532523_c3989019d1_q.jpg'
p543
sg13
S'3883532523'
p544
sa(dp545
g11
S'http://farm5.staticflickr.com/4025/4620617245_d2f887d23a_q.jpg'
p546
sg13
S'4620617245'
p547
sa(dp548
g11
S'http://farm3.staticflickr.com/2745/4520340022_66dd753b24_q.jpg'
p549
sg13
S'4520340022'
p550
sa(dp551
g11
S'http://farm3.staticflickr.com/2422/3671342296_9a3be12a59_q.jpg'
p552
sg13
S'3671342296'
p553
sa(dp554
g11
S'http://farm5.staticflickr.com/4061/4638793266_1db977cd32_q.jpg'
p555
sg13
S'4638793266'
p556
sa(dp557
g11
S'http://farm3.staticflickr.com/2599/4407129555_9ff95ce0e1_q.jpg'
p558
sg13
S'4407129555'
p559
sa(dp560
g11
S'http://farm3.staticflickr.com/2443/3997805265_4d339f3135_q.jpg'
p561
sg13
S'3997805265'
p562
sa(dp563
g11
S'http://farm4.staticflickr.com/3650/3637075385_2c58bfbc5b_q.jpg'
p564
sg13
S'3637075385'
p565
sa(dp566
g11
S'http://farm4.staticflickr.com/3452/3786233351_a1d9b10aab_q.jpg'
p567
sg13
S'3786233351'
p568
sa(dp569
g11
S'http://farm4.staticflickr.com/3517/3758474869_50d3a6b0a5_q.jpg'
p570
sg13
S'3758474869'
p571
sas(S'Nikon D90'
g4
(g6
S'b$E\xbaoS\x96?'
tRp572
tp573
(lp574
(dp575
g11
S'http://farm2.staticflickr.com/1021/4729320403_8fc928b73d_q.jpg'
p576
sg13
S'4729320403'
p577
sa(dp578
g11
S'http://farm3.staticflickr.com/2557/3733805627_ebe8c1de5d_q.jpg'
p579
sg13
S'3733805627'
p580
sa(dp581
g11
S'http://farm5.staticflickr.com/4023/4677489081_b704262065_q.jpg'
p582
sg13
S'4677489081'
p583
sa(dp584
g11
S'http://farm5.staticflickr.com/4098/4763291528_daff5af148_q.jpg'
p585
sg13
S'4763291528'
p586
sa(dp587
g11
S'http://farm5.staticflickr.com/4116/4859208681_fb9fd9934c_q.jpg'
p588
sg13
S'4859208681'
p589
sa(dp590
g11
S'http://farm5.staticflickr.com/4071/4448195960_b7ba85dbd8_q.jpg'
p591
sg13
S'4448195960'
p592
sa(dp593
g11
S'http://farm2.staticflickr.com/1388/4723873270_3d1ac08ff4_q.jpg'
p594
sg13
S'4723873270'
p595
sa(dp596
g11
S'http://farm2.staticflickr.com/1315/5131495638_8a29623665_q.jpg'
p597
sg13
S'5131495638'
p598
sa(dp599
g11
S'http://farm5.staticflickr.com/4134/4741994428_225bb91991_q.jpg'
p600
sg13
S'4741994428'
p601
sa(dp602
g11
S'http://farm6.staticflickr.com/5069/5549675610_450ec6489a_q.jpg'
p603
sg13
S'5549675610'
p604
sas(S'Samsung NX10'
g4
(g6
S'a1*\x1a\xab\xb6\x86?'
tRp605
tp606
(lp607
(dp608
g11
S'http://farm6.staticflickr.com/5002/5191567844_1d14654b32_q.jpg'
p609
sg13
S'5191567844'
p610
sa(dp611
g11
S'http://farm8.staticflickr.com/7204/6937667885_f69670ab80_q.jpg'
p612
sg13
S'6937667885'
p613
sa(dp614
g11
S'http://farm5.staticflickr.com/4085/5097965206_583601e627_q.jpg'
p615
sg13
S'5097965206'
p616
sa(dp617
g11
S'http://farm5.staticflickr.com/4091/5191268313_106df73556_q.jpg'
p618
sg13
S'5191268313'
p619
sa(dp620
g11
S'http://farm6.staticflickr.com/5166/5224260028_f91246d605_q.jpg'
p621
sg13
S'5224260028'
p622
sa(dp623
g11
S'http://farm6.staticflickr.com/5282/5221485070_8104a0f42a_q.jpg'
p624
sg13
S'5221485070'
p625
sa(dp626
g11
S'http://farm6.staticflickr.com/5097/5405316467_41a5244b5d_q.jpg'
p627
sg13
S'5405316467'
p628
sa(dp629
g11
S'http://farm5.staticflickr.com/4071/4684069079_25b53958a7_q.jpg'
p630
sg13
S'4684069079'
p631
sa(dp632
g11
S'http://farm5.staticflickr.com/4122/4899958027_7fb15671d0_q.jpg'
p633
sg13
S'4899958027'
p634
sa(dp635
g11
S'http://farm6.staticflickr.com/5124/5222187457_506d4c8648_q.jpg'
p636
sg13
S'5222187457'
p637
sassS'nature'
p638
(dp639
(S'Samsung NX10'
g4
(g6
S'%\x19\x99V\x84\x96\x8f?'
tRp640
tp641
(lp642
(dp643
g11
S'http://farm6.staticflickr.com/5002/5191567844_1d14654b32_q.jpg'
p644
sg13
S'5191567844'
p645
sa(dp646
g11
S'http://farm5.staticflickr.com/4123/4896942316_9a0ea87cdf_q.jpg'
p647
sg13
S'4896942316'
p648
sa(dp649
g11
S'http://farm5.staticflickr.com/4091/5191268313_106df73556_q.jpg'
p650
sg13
S'5191268313'
p651
sa(dp652
g11
S'http://farm6.staticflickr.com/5166/5224260028_f91246d605_q.jpg'
p653
sg13
S'5224260028'
p654
sa(dp655
g11
S'http://farm2.staticflickr.com/1298/5188694473_c9670571d7_q.jpg'
p656
sg13
S'5188694473'
p657
sas(S'Panasonic DMC-LX3'
g4
(g6
S'kH\xcb\xa2\xee\x8b\x82?'
tRp658
tp659
(lp660
(dp661
g11
S'http://farm8.staticflickr.com/7035/6522099087_57b01d7424_q.jpg'
p662
sg13
S'6522099087'
p663
sa(dp664
g11
S'http://farm7.staticflickr.com/6064/6101300180_0467d06aea_q.jpg'
p665
sg13
S'6101300180'
p666
sa(dp667
g11
S'http://farm7.staticflickr.com/6158/6152927177_e764a4c9a6_q.jpg'
p668
sg13
S'6152927177'
p669
sa(dp670
g11
S'http://farm9.staticflickr.com/8104/8654841897_a15e6342e8_q.jpg'
p671
sg13
S'8654841897'
p672
sa(dp673
g11
S'http://farm8.staticflickr.com/7146/6772214933_a5d596dc4a_q.jpg'
p674
sg13
S'6772214933'
p675
sa(dp676
g11
S'http://farm8.staticflickr.com/7011/6731517975_96aa2a8383_q.jpg'
p677
sg13
S'6731517975'
p678
sa(dp679
g11
S'http://farm7.staticflickr.com/6186/6074030884_e046beb277_q.jpg'
p680
sg13
S'6074030884'
p681
sa(dp682
g11
S'http://farm8.staticflickr.com/7144/6777131751_a20a9d805f_q.jpg'
p683
sg13
S'6777131751'
p684
sa(dp685
g11
S'http://farm7.staticflickr.com/6201/6113325279_a77f9e48cc_q.jpg'
p686
sg13
S'6113325279'
p687
sa(dp688
g11
S'http://farm4.staticflickr.com/3064/5840203957_543e3c1324_q.jpg'
p689
sg13
S'5840203957'
p690
sas(S'Canon EOS 20D'
g4
(g6
S'\x02\xc0&B\xb0|\xb2?'
tRp691
tp692
(lp693
(dp694
g11
S'http://farm2.staticflickr.com/1156/942938486_65b6d1efe7_q.jpg'
p695
sg13
S'942938486'
p696
sa(dp697
g11
S'http://farm1.staticflickr.com/33/63452603_b3a5b5448d_q.jpg'
p698
sg13
S'63452603'
p699
sas(S'Canon EOS 50D'
g4
(g6
S'\xbcV\xf3C\xe2r\x8d?'
tRp700
tp701
(lp702
(dp703
g11
S'http://farm5.staticflickr.com/4012/4536902551_d46509bb42_q.jpg'
p704
sg13
S'4536902551'
p705
sa(dp706
g11
S'http://farm6.staticflickr.com/5048/5372399116_96b2c385f7_q.jpg'
p707
sg13
S'5372399116'
p708
sa(dp709
g11
S'http://farm3.staticflickr.com/2487/5718837564_a8e27c5668_q.jpg'
p710
sg13
S'5718837564'
p711
sa(dp712
g11
S'http://farm6.staticflickr.com/5267/5625965457_f8cfbfda58_q.jpg'
p713
sg13
S'5625965457'
p714
sa(dp715
g11
S'http://farm5.staticflickr.com/4011/4548650039_bc7456d51b_q.jpg'
p716
sg13
S'4548650039'
p717
sa(dp718
g11
S'http://farm6.staticflickr.com/5052/5424584715_d5678970df_q.jpg'
p719
sg13
S'5424584715'
p720
sa(dp721
g11
S'http://farm3.staticflickr.com/2790/4523140937_c3ab6e3ee4_q.jpg'
p722
sg13
S'4523140937'
p723
sa(dp724
g11
S'http://farm5.staticflickr.com/4042/4568168052_2ec855de25_q.jpg'
p725
sg13
S'4568168052'
p726
sa(dp727
g11
S'http://farm5.staticflickr.com/4006/5131022085_62876bbfbd_q.jpg'
p728
sg13
S'5131022085'
p729
sa(dp730
g11
S'http://farm7.staticflickr.com/6130/5980144047_4e77fa70fd_q.jpg'
p731
sg13
S'5980144047'
p732
sas(S'Canon EOS 7D'
g4
(g6
S'RO\xb3xfC\x8d?'
tRp733
tp734
(lp735
(dp736
g11
S'http://farm6.staticflickr.com/5245/5231945478_ba55abaf51_q.jpg'
p737
sg13
S'5231945478'
p738
sa(dp739
g11
S'http://farm5.staticflickr.com/4135/4824025773_f02340d74b_q.jpg'
p740
sg13
S'4824025773'
p741
sa(dp742
g11
S'http://farm3.staticflickr.com/2728/4462067409_5c681f1fcc_q.jpg'
p743
sg13
S'4462067409'
p744
sa(dp745
g11
S'http://farm4.staticflickr.com/3076/5838129914_7d8be12e72_q.jpg'
p746
sg13
S'5838129914'
p747
sa(dp748
g11
S'http://farm5.staticflickr.com/4069/5106593217_f8e748329a_q.jpg'
p749
sg13
S'5106593217'
p750
sa(dp751
g11
S'http://farm3.staticflickr.com/2291/5796529061_4f8a7185c8_q.jpg'
p752
sg13
S'5796529061'
p753
sa(dp754
g11
S'http://farm8.staticflickr.com/7164/6515250081_3fbf5740dc_q.jpg'
p755
sg13
S'6515250081'
p756
sa(dp757
g11
S'http://farm9.staticflickr.com/8357/8325886238_2e74787c32_q.jpg'
p758
sg13
S'8325886238'
p759
sa(dp760
g11
S'http://farm5.staticflickr.com/4088/5217564633_3e6886e31a_q.jpg'
p761
sg13
S'5217564633'
p762
sa(dp763
g11
S'http://farm7.staticflickr.com/6058/6368881029_0145030234_q.jpg'
p764
sg13
S'6368881029'
p765
sas(S'Canon PowerShot G11'
g4
(g6
S'\xfa\xbd\xe2\x83l-\x82?'
tRp766
tp767
(lp768
(dp769
g11
S'http://farm8.staticflickr.com/7280/8151226429_8743c8f386_q.jpg'
p770
sg13
S'8151226429'
p771
sa(dp772
g11
S'http://farm7.staticflickr.com/6193/6042343394_0ea3b9830c_q.jpg'
p773
sg13
S'6042343394'
p774
sa(dp775
g11
S'http://farm7.staticflickr.com/6226/6364169419_edbe0061b2_q.jpg'
p776
sg13
S'6364169419'
p777
sa(dp778
g11
S'http://farm8.staticflickr.com/7100/7216746262_3e5fffe975_q.jpg'
p779
sg13
S'7216746262'
p780
sa(dp781
g11
S'http://farm9.staticflickr.com/8487/8197203120_24d91fe32c_q.jpg'
p782
sg13
S'8197203120'
p783
sa(dp784
g11
S'http://farm6.staticflickr.com/5109/5621817885_627fe4c451_q.jpg'
p785
sg13
S'5621817885'
p786
sa(dp787
g11
S'http://farm9.staticflickr.com/8441/7988768886_1bccc52ddc_q.jpg'
p788
sg13
S'7988768886'
p789
sa(dp790
g11
S'http://farm8.staticflickr.com/7099/6986657744_f3846be15e_q.jpg'
p791
sg13
S'6986657744'
p792
sa(dp793
g11
S'http://farm8.staticflickr.com/7258/7568930764_0d5a358c10_q.jpg'
p794
sg13
S'7568930764'
p795
sa(dp796
g11
S'http://farm9.staticflickr.com/8472/8128163824_4891dca977_q.jpg'
p797
sg13
S'8128163824'
p798
sas(S'Canon EOS 5D Mark II'
g4
(g6
S'y:8\xc7T\x9e\xac?'
tRp799
tp800
(lp801
(dp802
g11
S'http://farm1.staticflickr.com/99/4568749456_59165a5141_q.jpg'
p803
sg13
S'4568749456'
p804
sa(dp805
g11
S'http://farm5.staticflickr.com/4123/4869240902_727d95717b_q.jpg'
p806
sg13
S'4869240902'
p807
sa(dp808
g11
S'http://farm2.staticflickr.com/1085/4721202445_8e593e62e0_q.jpg'
p809
sg13
S'4721202445'
p810
sa(dp811
g11
S'http://farm5.staticflickr.com/4025/4446003230_b4523afd36_q.jpg'
p812
sg13
S'4446003230'
p813
sa(dp814
g11
S'http://farm3.staticflickr.com/2546/5835280777_d067530833_q.jpg'
p815
sg13
S'5835280777'
p816
sa(dp817
g11
S'http://farm5.staticflickr.com/4026/4499220627_d2cd8b3280_q.jpg'
p818
sg13
S'4499220627'
p819
sa(dp820
g11
S'http://farm8.staticflickr.com/7148/6709859653_f21034688f_q.jpg'
p821
sg13
S'6709859653'
p822
sa(dp823
g11
S'http://farm7.staticflickr.com/6031/6308644276_b547710068_q.jpg'
p824
sg13
S'6308644276'
p825
sa(dp826
g11
S'http://farm6.staticflickr.com/5244/5338151979_b3bc9e10d6_q.jpg'
p827
sg13
S'5338151979'
p828
sa(dp829
g11
S'http://farm7.staticflickr.com/6101/6308270545_b170f894f7_q.jpg'
p830
sg13
S'6308270545'
p831
sas(S'Nikon D300'
g4
(g6
S'\xe4V\xfa\xefkj\x7f?'
tRp832
tp833
(lp834
(dp835
g11
S'http://farm6.staticflickr.com/5171/5421126386_552eda819d_q.jpg'
p836
sg13
S'5421126386'
p837
sa(dp838
g11
S'http://farm8.staticflickr.com/7143/6621178411_e52b6ab043_q.jpg'
p839
sg13
S'6621178411'
p840
sa(dp841
g11
S'http://farm5.staticflickr.com/4057/4438517658_6dc8b1d639_q.jpg'
p842
sg13
S'4438517658'
p843
sa(dp844
g11
S'http://farm4.staticflickr.com/3304/4619684300_b75ef925d1_q.jpg'
p845
sg13
S'4619684300'
p846
sa(dp847
g11
S'http://farm4.staticflickr.com/3304/4595270745_64722658b6_q.jpg'
p848
sg13
S'4595270745'
p849
sa(dp850
g11
S'http://farm8.staticflickr.com/7144/6695766815_76f1fc4316_q.jpg'
p851
sg13
S'6695766815'
p852
sa(dp853
g11
S'http://farm3.staticflickr.com/2714/4500622806_5c5cd3c0c6_q.jpg'
p854
sg13
S'4500622806'
p855
sa(dp856
g11
S'http://farm7.staticflickr.com/6216/6246537367_b302eed1f2_q.jpg'
p857
sg13
S'6246537367'
p858
sa(dp859
g11
S'http://farm5.staticflickr.com/4087/5172486194_4cc3999cb9_q.jpg'
p860
sg13
S'5172486194'
p861
sa(dp862
g11
S'http://farm6.staticflickr.com/5271/6914362758_3824cbe7a0_q.jpg'
p863
sg13
S'6914362758'
p864
sas(S'Nikon D90'
g4
(g6
S'\xc8y\xe7\xe4\x169\x92?'
tRp865
tp866
(lp867
(dp868
g11
S'http://farm2.staticflickr.com/1322/5125676686_2953debb6e_q.jpg'
p869
sg13
S'5125676686'
p870
sa(dp871
g11
S'http://farm2.staticflickr.com/1315/5131495638_8a29623665_q.jpg'
p872
sg13
S'5131495638'
p873
sa(dp874
g11
S'http://farm5.staticflickr.com/4140/4929332578_483bb01ba9_q.jpg'
p875
sg13
S'4929332578'
p876
sa(dp877
g11
S'http://farm6.staticflickr.com/5108/5880394936_a165533916_q.jpg'
p878
sg13
S'5880394936'
p879
sa(dp880
g11
S'http://farm5.staticflickr.com/4074/4938087989_6aab6ba496_q.jpg'
p881
sg13
S'4938087989'
p882
sa(dp883
g11
S'http://farm6.staticflickr.com/5207/5295580685_6cf9f40564_q.jpg'
p884
sg13
S'5295580685'
p885
sa(dp886
g11
S'http://farm6.staticflickr.com/5314/5854278299_f90bd9c3d4_q.jpg'
p887
sg13
S'5854278299'
p888
sa(dp889
g11
S'http://farm8.staticflickr.com/7001/6445595687_ba9628128f_q.jpg'
p890
sg13
S'6445595687'
p891
sa(dp892
g11
S'http://farm8.staticflickr.com/7055/6851737203_44f61cddf7_q.jpg'
p893
sg13
S'6851737203'
p894
sa(dp895
g11
S'http://farm8.staticflickr.com/7071/7105582489_73a0aa9b74_q.jpg'
p896
sg13
S'7105582489'
p897
sas(S'Nikon D700'
g4
(g6
S'\x05\x0by\xf87\x9b\x90?'
tRp898
tp899
(lp900
(dp901
g11
S'http://farm5.staticflickr.com/4116/4882097239_d9e30a2c48_q.jpg'
p902
sg13
S'4882097239'
p903
sa(dp904
g11
S'http://farm7.staticflickr.com/6169/6166839745_e4a5da6e6b_q.jpg'
p905
sg13
S'6166839745'
p906
sa(dp907
g11
S'http://farm5.staticflickr.com/4077/4865731133_dde41231b7_q.jpg'
p908
sg13
S'4865731133'
p909
sa(dp910
g11
S'http://farm5.staticflickr.com/4084/4963965458_688ede87be_q.jpg'
p911
sg13
S'4963965458'
p912
sa(dp913
g11
S'http://farm2.staticflickr.com/1384/5164472892_6c33cd1922_q.jpg'
p914
sg13
S'5164472892'
p915
sa(dp916
g11
S'http://farm6.staticflickr.com/5028/5661697632_d1ff426de6_q.jpg'
p917
sg13
S'5661697632'
p918
sa(dp919
g11
S'http://farm5.staticflickr.com/4075/4812475974_60964780ff_q.jpg'
p920
sg13
S'4812475974'
p921
sa(dp922
g11
S'http://farm5.staticflickr.com/4130/5184313777_17c3c21fae_q.jpg'
p923
sg13
S'5184313777'
p924
sa(dp925
g11
S'http://farm6.staticflickr.com/5187/5848154940_34c0641107_q.jpg'
p926
sg13
S'5848154940'
p927
sa(dp928
g11
S'http://farm7.staticflickr.com/6137/5918618839_54edcb149d_q.jpg'
p929
sg13
S'5918618839'
p930
sassS'food'
p931
(dp932
(S'Canon EOS 20D'
g4
(g6
S'\xa6\xb5\x9b\xdb\x02^\x89?'
tRp933
tp934
(lp935
(dp936
g11
S'http://farm4.staticflickr.com/3230/2775416960_4ee50999f8_q.jpg'
p937
sg13
S'2775416960'
p938
sa(dp939
g11
S'http://farm4.staticflickr.com/3115/2728895433_849a0260bd_q.jpg'
p940
sg13
S'2728895433'
p941
sa(dp942
g11
S'http://farm2.staticflickr.com/1038/829017598_6769060a3b_q.jpg'
p943
sg13
S'829017598'
p944
sa(dp945
g11
S'http://farm4.staticflickr.com/3509/3925817310_365191b8ab_q.jpg'
p946
sg13
S'3925817310'
p947
sa(dp948
g11
S'http://farm4.staticflickr.com/3130/2858522161_98f4460a9f_q.jpg'
p949
sg13
S'2858522161'
p950
sa(dp951
g11
S'http://farm4.staticflickr.com/3591/3546688248_b14688bf8b_q.jpg'
p952
sg13
S'3546688248'
p953
sa(dp954
g11
S'http://farm1.staticflickr.com/42/90910024_f1106f42cb_q.jpg'
p955
sg13
S'90910024'
p956
sa(dp957
g11
S'http://farm1.staticflickr.com/249/528303253_0e17efb36d_q.jpg'
p958
sg13
S'528303253'
p959
sa(dp960
g11
S'http://farm3.staticflickr.com/2137/3543124470_dda574f641_q.jpg'
p961
sg13
S'3543124470'
p962
sa(dp963
g11
S'http://farm5.staticflickr.com/4035/4696347410_3827d02681_q.jpg'
p964
sg13
S'4696347410'
p965
sas(S'Nikon D90'
g4
(g6
S'\xbf\x8f#\x1d$\xc4\x84?'
tRp966
tp967
(lp968
(dp969
g11
S'http://farm4.staticflickr.com/3401/3323690183_bc73d09375_q.jpg'
p970
sg13
S'3323690183'
p971
sa(dp972
g11
S'http://farm9.staticflickr.com/8150/7497500748_5f37df32aa_q.jpg'
p973
sg13
S'7497500748'
p974
sa(dp975
g11
S'http://farm5.staticflickr.com/4052/4300821306_406b297e13_q.jpg'
p976
sg13
S'4300821306'
p977
sa(dp978
g11
S'http://farm6.staticflickr.com/5214/5430539261_957f8f7d83_q.jpg'
p979
sg13
S'5430539261'
p980
sa(dp981
g11
S'http://farm6.staticflickr.com/5327/7112394633_6e9e29d145_q.jpg'
p982
sg13
S'7112394633'
p983
sa(dp984
g11
S'http://farm6.staticflickr.com/5284/5344607573_6b57282f4e_q.jpg'
p985
sg13
S'5344607573'
p986
sa(dp987
g11
S'http://farm5.staticflickr.com/4099/4890875722_e170b5c4be_q.jpg'
p988
sg13
S'4890875722'
p989
sa(dp990
g11
S'http://farm3.staticflickr.com/2431/4001405916_ac6a15a634_q.jpg'
p991
sg13
S'4001405916'
p992
sa(dp993
g11
S'http://farm6.staticflickr.com/5010/5377657167_e5d3acc8ac_q.jpg'
p994
sg13
S'5377657167'
p995
sa(dp996
g11
S'http://farm2.staticflickr.com/1238/4603933190_884da0dd76_q.jpg'
p997
sg13
S'4603933190'
p998
sas(S'Canon EOS 5D Mark II'
g4
(g6
S'\x852\xec*\xba\xd5\x94?'
tRp999
tp1000
(lp1001
(dp1002
g11
S'http://farm3.staticflickr.com/2658/3959892920_555a5ed30d_q.jpg'
p1003
sg13
S'3959892920'
p1004
sa(dp1005
g11
S'http://farm4.staticflickr.com/3411/4576258434_c2b1429334_q.jpg'
p1006
sg13
S'4576258434'
p1007
sa(dp1008
g11
S'http://farm6.staticflickr.com/5084/5723444896_10a2072f41_q.jpg'
p1009
sg13
S'5723444896'
p1010
sa(dp1011
g11
S'http://farm3.staticflickr.com/2714/4359138190_9e938be3c2_q.jpg'
p1012
sg13
S'4359138190'
p1013
sa(dp1014
g11
S'http://farm4.staticflickr.com/3543/5839086074_f43ef23a7f_q.jpg'
p1015
sg13
S'5839086074'
p1016
sa(dp1017
g11
S'http://farm9.staticflickr.com/8353/8274833739_f3f5f8e5c8_q.jpg'
p1018
sg13
S'8274833739'
p1019
sa(dp1020
g11
S'http://farm9.staticflickr.com/8019/7674608596_d262ab15c8_q.jpg'
p1021
sg13
S'7674608596'
p1022
sa(dp1023
g11
S'http://farm4.staticflickr.com/3619/3483331088_4684fdbcfb_q.jpg'
p1024
sg13
S'3483331088'
p1025
sa(dp1026
g11
S'http://farm3.staticflickr.com/2778/4425185056_46124cf239_q.jpg'
p1027
sg13
S'4425185056'
p1028
sa(dp1029
g11
S'http://farm5.staticflickr.com/4024/4288112752_8d40555348_q.jpg'
p1030
sg13
S'4288112752'
p1031
sas(S'Nikon D300'
g4
(g6
S'y\x9e\xcbv\x06\x91\x90?'
tRp1032
tp1033
(lp1034
(dp1035
g11
S'http://farm4.staticflickr.com/3425/3296185742_5fd893e1c7_q.jpg'
p1036
sg13
S'3296185742'
p1037
sa(dp1038
g11
S'http://farm5.staticflickr.com/4148/4973896467_15eea09757_q.jpg'
p1039
sg13
S'4973896467'
p1040
sa(dp1041
g11
S'http://farm6.staticflickr.com/5243/5311442510_5651a10d88_q.jpg'
p1042
sg13
S'5311442510'
p1043
sa(dp1044
g11
S'http://farm4.staticflickr.com/3362/3495639773_4cf1a99552_q.jpg'
p1045
sg13
S'3495639773'
p1046
sa(dp1047
g11
S'http://farm3.staticflickr.com/2127/2479825551_21c368b6c4_q.jpg'
p1048
sg13
S'2479825551'
p1049
sa(dp1050
g11
S'http://farm8.staticflickr.com/7008/6505676005_a6de644629_q.jpg'
p1051
sg13
S'6505676005'
p1052
sa(dp1053
g11
S'http://farm4.staticflickr.com/3612/3377481286_6ebd0d0985_q.jpg'
p1054
sg13
S'3377481286'
p1055
sa(dp1056
g11
S'http://farm4.staticflickr.com/3612/3691527422_acc616d355_q.jpg'
p1057
sg13
S'3691527422'
p1058
sa(dp1059
g11
S'http://farm3.staticflickr.com/2683/4295792226_1ec34e9fa5_q.jpg'
p1060
sg13
S'4295792226'
p1061
sa(dp1062
g11
S'http://farm3.staticflickr.com/2564/3807333358_bf6151d589_q.jpg'
p1063
sg13
S'3807333358'
p1064
sas(S'Canon EOS 5D'
g4
(g6
S'P\xe9\xa0[9\xec\x92?'
tRp1065
tp1066
(lp1067
(dp1068
g11
S'http://farm3.staticflickr.com/2011/1879250288_95901bd6d4_q.jpg'
p1069
sg13
S'1879250288'
p1070
sa(dp1071
g11
S'http://farm1.staticflickr.com/178/454981813_d9b168d6b4_q.jpg'
p1072
sg13
S'454981813'
p1073
sa(dp1074
g11
S'http://farm4.staticflickr.com/3138/2355516187_85b9247ae0_q.jpg'
p1075
sg13
S'2355516187'
p1076
sa(dp1077
g11
S'http://farm9.staticflickr.com/8033/8029572187_bafa863bd7_q.jpg'
p1078
sg13
S'8029572187'
p1079
sa(dp1080
g11
S'http://farm1.staticflickr.com/221/504791001_9e8b25b0f1_q.jpg'
p1081
sg13
S'504791001'
p1082
sa(dp1083
g11
S'http://farm1.staticflickr.com/92/205664580_92f43ee0d1_q.jpg'
p1084
sg13
S'205664580'
p1085
sa(dp1086
g11
S'http://farm2.staticflickr.com/1209/644702656_244c9ae5ba_q.jpg'
p1087
sg13
S'644702656'
p1088
sa(dp1089
g11
S'http://farm3.staticflickr.com/2413/1812187705_b233530f3e_q.jpg'
p1090
sg13
S'1812187705'
p1091
sa(dp1092
g11
S'http://farm4.staticflickr.com/3542/3353496447_b61172c2c6_q.jpg'
p1093
sg13
S'3353496447'
p1094
sa(dp1095
g11
S'http://farm2.staticflickr.com/1052/885785722_ac7f2dd3d3_q.jpg'
p1096
sg13
S'885785722'
p1097
sas(S'Canon EOS Digital Rebel XT'
g4
(g6
S'\xc3\x85\xf8\xdb\x80\xb9\x8f?'
tRp1098
tp1099
(lp1100
(dp1101
g11
S'http://farm4.staticflickr.com/3094/3245408401_ac25fa2148_q.jpg'
p1102
sg13
S'3245408401'
p1103
sa(dp1104
g11
S'http://farm4.staticflickr.com/3558/3362171123_622f6f9c5a_q.jpg'
p1105
sg13
S'3362171123'
p1106
sa(dp1107
g11
S'http://farm4.staticflickr.com/3226/3100334166_8e2bb53da6_q.jpg'
p1108
sg13
S'3100334166'
p1109
sa(dp1110
g11
S'http://farm3.staticflickr.com/2228/3577298505_4a1164db2d_q.jpg'
p1111
sg13
S'3577298505'
p1112
sa(dp1113
g11
S'http://farm4.staticflickr.com/3640/3424396006_9a4f58e2f5_q.jpg'
p1114
sg13
S'3424396006'
p1115
sa(dp1116
g11
S'http://farm4.staticflickr.com/3134/3241370218_9daaf7b697_q.jpg'
p1117
sg13
S'3241370218'
p1118
sa(dp1119
g11
S'http://farm4.staticflickr.com/3393/3227865079_13b04461a9_q.jpg'
p1120
sg13
S'3227865079'
p1121
sa(dp1122
g11
S'http://farm3.staticflickr.com/2107/2184722156_fd76e00519_q.jpg'
p1123
sg13
S'2184722156'
p1124
sa(dp1125
g11
S'http://farm3.staticflickr.com/2372/1806684507_6b42c46a42_q.jpg'
p1126
sg13
S'1806684507'
p1127
sa(dp1128
g11
S'http://farm4.staticflickr.com/3272/3076205741_3baa077883_q.jpg'
p1129
sg13
S'3076205741'
p1130
sas(S'Canon EOS 50D'
g4
(g6
S'^\xf3\xd3\xc7\xb2\xfe\x85?'
tRp1131
tp1132
(lp1133
(dp1134
g11
S'http://farm5.staticflickr.com/4048/4702245780_31198930a5_q.jpg'
p1135
sg13
S'4702245780'
p1136
sa(dp1137
g11
S'http://farm6.staticflickr.com/5098/5435964406_bfbda22ae2_q.jpg'
p1138
sg13
S'5435964406'
p1139
sa(dp1140
g11
S'http://farm5.staticflickr.com/4035/4223554509_7b486534cd_q.jpg'
p1141
sg13
S'4223554509'
p1142
sa(dp1143
g11
S'http://farm5.staticflickr.com/4062/4432902052_42d311aa3e_q.jpg'
p1144
sg13
S'4432902052'
p1145
sa(dp1146
g11
S'http://farm6.staticflickr.com/5054/5470280601_25af84e4f7_q.jpg'
p1147
sg13
S'5470280601'
p1148
sa(dp1149
g11
S'http://farm8.staticflickr.com/7027/6440703929_867f9f1804_q.jpg'
p1150
sg13
S'6440703929'
p1151
sa(dp1152
g11
S'http://farm4.staticflickr.com/3585/3570005454_e9f88505f8_q.jpg'
p1153
sg13
S'3570005454'
p1154
sa(dp1155
g11
S'http://farm4.staticflickr.com/3548/3690682655_ab74bd89a1_q.jpg'
p1156
sg13
S'3690682655'
p1157
sa(dp1158
g11
S'http://farm5.staticflickr.com/4071/4585712049_3d2e4f3a10_q.jpg'
p1159
sg13
S'4585712049'
p1160
sa(dp1161
g11
S'http://farm6.staticflickr.com/5032/5846658416_7e4ea7ed0e_q.jpg'
p1162
sg13
S'5846658416'
p1163
sas(S'Nikon D50'
g4
(g6
S'\xa4"\xe5\xd5\xf3\x8d\x8d?'
tRp1164
tp1165
(lp1166
(dp1167
g11
S'http://farm1.staticflickr.com/30/373770459_193c89fb37_q.jpg'
p1168
sg13
S'373770459'
p1169
sa(dp1170
g11
S'http://farm1.staticflickr.com/153/352543011_a5a18ab03a_q.jpg'
p1171
sg13
S'352543011'
p1172
sa(dp1173
g11
S'http://farm1.staticflickr.com/60/189890016_b71312812c_q.jpg'
p1174
sg13
S'189890016'
p1175
sa(dp1176
g11
S'http://farm1.staticflickr.com/60/191531708_ea20ca1a44_q.jpg'
p1177
sg13
S'191531708'
p1178
sa(dp1179
g11
S'http://farm3.staticflickr.com/2296/1955628306_1cd0f41f79_q.jpg'
p1180
sg13
S'1955628306'
p1181
sa(dp1182
g11
S'http://farm6.staticflickr.com/5167/5234381535_a37ec472c3_q.jpg'
p1183
sg13
S'5234381535'
p1184
sa(dp1185
g11
S'http://farm4.staticflickr.com/3147/2440051733_7d54e4f480_q.jpg'
p1186
sg13
S'2440051733'
p1187
sa(dp1188
g11
S'http://farm4.staticflickr.com/3024/2596155129_fa6fbfc9c2_q.jpg'
p1189
sg13
S'2596155129'
p1190
sa(dp1191
g11
S'http://farm4.staticflickr.com/3095/2435555395_d9cf848337_q.jpg'
p1192
sg13
S'2435555395'
p1193
sa(dp1194
g11
S'http://farm6.staticflickr.com/5147/5612052692_2bb06ecbc4_q.jpg'
p1195
sg13
S'5612052692'
p1196
sas(S'Canon EOS-1D Mark IV'
g4
(g6
S'\x0ev/\xd25]\x84?'
tRp1197
tp1198
(lp1199
(dp1200
g11
S'http://farm4.staticflickr.com/3150/5773185416_e16abfc556_q.jpg'
p1201
sg13
S'5773185416'
p1202
sa(dp1203
g11
S'http://farm5.staticflickr.com/4116/4887785243_eeac22ea84_q.jpg'
p1204
sg13
S'4887785243'
p1205
sas(S'Canon EOS Digital Rebel XTi'
g4
(g6
S'\x19\x1dO\xe7,\xbe\x90?'
tRp1206
tp1207
(lp1208
(dp1209
g11
S'http://farm4.staticflickr.com/3145/2858885013_521c7f9678_q.jpg'
p1210
sg13
S'2858885013'
p1211
sa(dp1212
g11
S'http://farm8.staticflickr.com/7142/6546800733_c1bcd45aaf_q.jpg'
p1213
sg13
S'6546800733'
p1214
sa(dp1215
g11
S'http://farm8.staticflickr.com/7005/6546920743_60e9ff5d7f_q.jpg'
p1216
sg13
S'6546920743'
p1217
sa(dp1218
g11
S'http://farm3.staticflickr.com/2294/2251863367_8e13a124bd_q.jpg'
p1219
sg13
S'2251863367'
p1220
sa(dp1221
g11
S'http://farm1.staticflickr.com/222/484047952_b741a5699b_q.jpg'
p1222
sg13
S'484047952'
p1223
sa(dp1224
g11
S'http://farm3.staticflickr.com/2327/1904633630_3b646c54ba_q.jpg'
p1225
sg13
S'1904633630'
p1226
sa(dp1227
g11
S'http://farm4.staticflickr.com/3155/2649835330_b96bcb558e_q.jpg'
p1228
sg13
S'2649835330'
p1229
sa(dp1230
g11
S'http://farm8.staticflickr.com/7149/6546903879_4764494abf_q.jpg'
p1231
sg13
S'6546903879'
p1232
sa(dp1233
g11
S'http://farm3.staticflickr.com/2115/2449374944_fd310a3ca3_q.jpg'
p1234
sg13
S'2449374944'
p1235
sa(dp1236
g11
S'http://farm4.staticflickr.com/3192/2420306655_353d32be83_q.jpg'
p1237
sg13
S'2420306655'
p1238
sassS'travel'
p1239
(dp1240
(S'Nikon D300'
g4
(g6
S'\xb9,V\xfbHi\x96?'
tRp1241
tp1242
(lp1243
(dp1244
g11
S'http://farm5.staticflickr.com/4087/5172486194_4cc3999cb9_q.jpg'
p1245
sg13
S'5172486194'
p1246
sa(dp1247
g11
S'http://farm6.staticflickr.com/5323/7222284384_10d64ab3c2_q.jpg'
p1248
sg13
S'7222284384'
p1249
sa(dp1250
g11
S'http://farm6.staticflickr.com/5061/5584613304_841ae30681_q.jpg'
p1251
sg13
S'5584613304'
p1252
sa(dp1253
g11
S'http://farm4.staticflickr.com/3342/3475830832_a081706f39_q.jpg'
p1254
sg13
S'3475830832'
p1255
sa(dp1256
g11
S'http://farm3.staticflickr.com/2375/3537526885_e30bb4849b_q.jpg'
p1257
sg13
S'3537526885'
p1258
sa(dp1259
g11
S'http://farm3.staticflickr.com/2475/3796856361_27b47df241_q.jpg'
p1260
sg13
S'3796856361'
p1261
sa(dp1262
g11
S'http://farm3.staticflickr.com/2642/3967090398_e44da30b4e_q.jpg'
p1263
sg13
S'3967090398'
p1264
sa(dp1265
g11
S'http://farm4.staticflickr.com/3650/3490185235_4eac173b57_q.jpg'
p1266
sg13
S'3490185235'
p1267
sa(dp1268
g11
S'http://farm6.staticflickr.com/5171/5421126386_552eda819d_q.jpg'
p1269
sg13
S'5421126386'
p1270
sa(dp1271
g11
S'http://farm5.staticflickr.com/4099/5413219165_ed5bb58366_q.jpg'
p1272
sg13
S'5413219165'
p1273
sas(S'Nikon D700'
g4
(g6
S'6\xbav\xbb)`\xb1?'
tRp1274
tp1275
(lp1276
(dp1277
g11
S'http://farm5.staticflickr.com/4116/4882097239_d9e30a2c48_q.jpg'
p1278
sg13
S'4882097239'
p1279
sa(dp1280
g11
S'http://farm9.staticflickr.com/8322/8032195208_a366cf6a63_q.jpg'
p1281
sg13
S'8032195208'
p1282
sa(dp1283
g11
S'http://farm5.staticflickr.com/4077/4865731133_dde41231b7_q.jpg'
p1284
sg13
S'4865731133'
p1285
sa(dp1286
g11
S'http://farm5.staticflickr.com/4142/4929128609_d4f73efea4_q.jpg'
p1287
sg13
S'4929128609'
p1288
sa(dp1289
g11
S'http://farm4.staticflickr.com/3380/3597786267_56bd440c90_q.jpg'
p1290
sg13
S'3597786267'
p1291
sa(dp1292
g11
S'http://farm3.staticflickr.com/2505/3842778696_5a328a01a7_q.jpg'
p1293
sg13
S'3842778696'
p1294
sa(dp1295
g11
S'http://farm2.staticflickr.com/1264/5146245870_9d0e8fb4df_q.jpg'
p1296
sg13
S'5146245870'
p1297
sa(dp1298
g11
S'http://farm5.staticflickr.com/4084/4963965458_688ede87be_q.jpg'
p1299
sg13
S'4963965458'
p1300
sa(dp1301
g11
S'http://farm5.staticflickr.com/4071/4322501772_b7656c560a_q.jpg'
p1302
sg13
S'4322501772'
p1303
sa(dp1304
g11
S'http://farm9.staticflickr.com/8162/7612589054_43b7b646d1_q.jpg'
p1305
sg13
S'7612589054'
p1306
sas(S'Nikon D70s'
g4
(g6
S')z\xc7\xc5v\xad\x87?'
tRp1307
tp1308
(lp1309
(dp1310
g11
S'http://farm4.staticflickr.com/3650/3637075385_2c58bfbc5b_q.jpg'
p1311
sg13
S'3637075385'
p1312
sa(dp1313
g11
S'http://farm3.staticflickr.com/2660/4076963533_554a40d136_q.jpg'
p1314
sg13
S'4076963533'
p1315
sa(dp1316
g11
S'http://farm3.staticflickr.com/2209/3652811543_83919d1201_q.jpg'
p1317
sg13
S'3652811543'
p1318
sa(dp1319
g11
S'http://farm3.staticflickr.com/2519/3703680567_7ce7f0e38a_q.jpg'
p1320
sg13
S'3703680567'
p1321
sa(dp1322
g11
S'http://farm3.staticflickr.com/2299/3529694787_975decbea9_q.jpg'
p1323
sg13
S'3529694787'
p1324
sas(S'Canon PowerShot A610'
g4
(g6
S'\xa7\xd0P\x0c\xd2\xea\x82?'
tRp1325
tp1326
(lp1327
(dp1328
g11
S'http://farm4.staticflickr.com/3347/3545796041_6eb339d836_q.jpg'
p1329
sg13
S'3545796041'
p1330
sa(dp1331
g11
S'http://farm3.staticflickr.com/2508/3720353467_c28d4ec140_q.jpg'
p1332
sg13
S'3720353467'
p1333
sa(dp1334
g11
S'http://farm3.staticflickr.com/2644/4059178954_ec97586ef8_q.jpg'
p1335
sg13
S'4059178954'
p1336
sa(dp1337
g11
S'http://farm4.staticflickr.com/3318/4574577687_acd48c06c4_q.jpg'
p1338
sg13
S'4574577687'
p1339
sa(dp1340
g11
S'http://farm4.staticflickr.com/3546/3450663646_6fcdcebdca_q.jpg'
p1341
sg13
S'3450663646'
p1342
sa(dp1343
g11
S'http://farm3.staticflickr.com/2470/3802683555_8f5da70e9d_q.jpg'
p1344
sg13
S'3802683555'
p1345
sa(dp1346
g11
S'http://farm5.staticflickr.com/4072/4714779148_0c25cc52f0_q.jpg'
p1347
sg13
S'4714779148'
p1348
sa(dp1349
g11
S'http://farm9.staticflickr.com/8189/8086708462_d81b4a5de7_q.jpg'
p1350
sg13
S'8086708462'
p1351
sa(dp1352
g11
S'http://farm4.staticflickr.com/3039/3975345732_df838de12a_q.jpg'
p1353
sg13
S'3975345732'
p1354
sa(dp1355
g11
S'http://farm4.staticflickr.com/3302/3504974853_5752a4b457_q.jpg'
p1356
sg13
S'3504974853'
p1357
sas(S'Canon EOS 5D'
g4
(g6
S'\x10\xc7\xc1\x8c\xe5\xbfz?'
tRp1358
tp1359
(lp1360
(dp1361
g11
S'http://farm4.staticflickr.com/3533/3240896769_a0437cdf9d_q.jpg'
p1362
sg13
S'3240896769'
p1363
sa(dp1364
g11
S'http://farm5.staticflickr.com/4057/4318899312_9c62cb98fb_q.jpg'
p1365
sg13
S'4318899312'
p1366
sa(dp1367
g11
S'http://farm4.staticflickr.com/3558/3412288518_6bc620f844_q.jpg'
p1368
sg13
S'3412288518'
p1369
sa(dp1370
g11
S'http://farm4.staticflickr.com/3506/3738269859_b58f3bc39a_q.jpg'
p1371
sg13
S'3738269859'
p1372
sa(dp1373
g11
S'http://farm3.staticflickr.com/2456/3977498042_008b4b4d4e_q.jpg'
p1374
sg13
S'3977498042'
p1375
sas(S'Nikon D90'
g4
(g6
S'L\xc2\x81t\xfc\xdc\x93?'
tRp1376
tp1377
(lp1378
(dp1379
g11
S'http://farm5.staticflickr.com/4143/4923613961_3de79bef7c_q.jpg'
p1380
sg13
S'4923613961'
p1381
sa(dp1382
g11
S'http://farm5.staticflickr.com/4116/4859208681_fb9fd9934c_q.jpg'
p1383
sg13
S'4859208681'
p1384
sa(dp1385
g11
S'http://farm4.staticflickr.com/3397/3241293053_2530cfa66d_q.jpg'
p1386
sg13
S'3241293053'
p1387
sa(dp1388
g11
S'http://farm8.staticflickr.com/7071/7105582489_73a0aa9b74_q.jpg'
p1389
sg13
S'7105582489'
p1390
sa(dp1391
g11
S'http://farm5.staticflickr.com/4147/5222837199_4dfb05713f_q.jpg'
p1392
sg13
S'5222837199'
p1393
sa(dp1394
g11
S'http://farm5.staticflickr.com/4074/4938087989_6aab6ba496_q.jpg'
p1395
sg13
S'4938087989'
p1396
sa(dp1397
g11
S'http://farm5.staticflickr.com/4082/4757432550_6c744b77ee_q.jpg'
p1398
sg13
S'4757432550'
p1399
sa(dp1400
g11
S'http://farm3.staticflickr.com/2520/4149868983_23da1bd580_q.jpg'
p1401
sg13
S'4149868983'
p1402
sa(dp1403
g11
S'http://farm5.staticflickr.com/4134/4815218552_831ae73507_q.jpg'
p1404
sg13
S'4815218552'
p1405
sa(dp1406
g11
S'http://farm3.staticflickr.com/2688/4397116707_6019b3ef22_q.jpg'
p1407
sg13
S'4397116707'
p1408
sas(S'Canon PowerShot G12'
g4
(g6
S'7\xb7\xd5\x08[\xd7x?'
tRp1409
tp1410
(lp1411
(dp1412
g11
S'http://farm9.staticflickr.com/8008/7473387506_533d2d39db_q.jpg'
p1413
sg13
S'7473387506'
p1414
sa(dp1415
g11
S'http://farm6.staticflickr.com/5263/5676687358_cc64a616e2_q.jpg'
p1416
sg13
S'5676687358'
p1417
sa(dp1418
g11
S'http://farm8.staticflickr.com/7225/6883610662_69815b7d5f_q.jpg'
p1419
sg13
S'6883610662'
p1420
sa(dp1421
g11
S'http://farm6.staticflickr.com/5018/5460432193_822e8f44aa_q.jpg'
p1422
sg13
S'5460432193'
p1423
sa(dp1424
g11
S'http://farm9.staticflickr.com/8172/7907272662_a7b4740919_q.jpg'
p1425
sg13
S'7907272662'
p1426
sa(dp1427
g11
S'http://farm7.staticflickr.com/6116/6364204955_d94c5b7205_q.jpg'
p1428
sg13
S'6364204955'
p1429
sa(dp1430
g11
S'http://farm9.staticflickr.com/8065/8190387989_c27f595945_q.jpg'
p1431
sg13
S'8190387989'
p1432
sa(dp1433
g11
S'http://farm8.staticflickr.com/7025/6560441791_88a2a9084e_q.jpg'
p1434
sg13
S'6560441791'
p1435
sa(dp1436
g11
S'http://farm8.staticflickr.com/7236/7321463436_a2e6e2608d_q.jpg'
p1437
sg13
S'7321463436'
p1438
sa(dp1439
g11
S'http://farm7.staticflickr.com/6069/6038687947_f421616dc3_q.jpg'
p1440
sg13
S'6038687947'
p1441
sas(S'Canon EOS 5D Mark II'
g4
(g6
S'\xdfP\xc02\x94W\xb0?'
tRp1442
tp1443
(lp1444
(dp1445
g11
S'http://farm4.staticflickr.com/3300/3551510533_a2f94475c6_q.jpg'
p1446
sg13
S'3551510533'
p1447
sa(dp1448
g11
S'http://farm4.staticflickr.com/3600/3578457069_39b99bc316_q.jpg'
p1449
sg13
S'3578457069'
p1450
sa(dp1451
g11
S'http://farm3.staticflickr.com/2547/3754385561_a5afa431b3_q.jpg'
p1452
sg13
S'3754385561'
p1453
sa(dp1454
g11
S'http://farm5.staticflickr.com/4002/4670017326_33f6ca5da2_q.jpg'
p1455
sg13
S'4670017326'
p1456
sa(dp1457
g11
S'http://farm5.staticflickr.com/4055/4564780513_13a2c65e07_q.jpg'
p1458
sg13
S'4564780513'
p1459
sa(dp1460
g11
S'http://farm5.staticflickr.com/4123/4869240902_727d95717b_q.jpg'
p1461
sg13
S'4869240902'
p1462
sa(dp1463
g11
S'http://farm6.staticflickr.com/5048/5260155417_8c3d97a9b1_q.jpg'
p1464
sg13
S'5260155417'
p1465
sa(dp1466
g11
S'http://farm5.staticflickr.com/4040/4583996002_5ac37f41c4_q.jpg'
p1467
sg13
S'4583996002'
p1468
sa(dp1469
g11
S'http://farm5.staticflickr.com/4145/4997428776_b4071ae9c9_q.jpg'
p1470
sg13
S'4997428776'
p1471
sa(dp1472
g11
S'http://farm2.staticflickr.com/1085/4721202445_8e593e62e0_q.jpg'
p1473
sg13
S'4721202445'
p1474
sas(S'Canon EOS 50D'
g4
(g6
S'kjv\x83\xa6\xdb\x84?'
tRp1475
tp1476
(lp1477
(dp1478
g11
S'http://farm3.staticflickr.com/2525/4159912348_1db05ed6fa_q.jpg'
p1479
sg13
S'4159912348'
p1480
sa(dp1481
g11
S'http://farm4.staticflickr.com/3633/3607919081_1ec159d95a_q.jpg'
p1482
sg13
S'3607919081'
p1483
sa(dp1484
g11
S'http://farm5.staticflickr.com/4012/4536902551_d46509bb42_q.jpg'
p1485
sg13
S'4536902551'
p1486
sa(dp1487
g11
S'http://farm6.staticflickr.com/5282/5260067001_9a19b07b38_q.jpg'
p1488
sg13
S'5260067001'
p1489
sa(dp1490
g11
S'http://farm4.staticflickr.com/3395/3509099011_4c9d598549_q.jpg'
p1491
sg13
S'3509099011'
p1492
sa(dp1493
g11
S'http://farm4.staticflickr.com/3555/3344461479_9816bba46b_q.jpg'
p1494
sg13
S'3344461479'
p1495
sa(dp1496
g11
S'http://farm4.staticflickr.com/3421/3772378193_49da88c78f_q.jpg'
p1497
sg13
S'3772378193'
p1498
sa(dp1499
g11
S'http://farm3.staticflickr.com/2626/3747307698_d6e45c5d30_q.jpg'
p1500
sg13
S'3747307698'
p1501
sa(dp1502
g11
S'http://farm6.staticflickr.com/5085/5323011079_074615ae81_q.jpg'
p1503
sg13
S'5323011079'
p1504
sa(dp1505
g11
S'http://farm4.staticflickr.com/3577/3638154970_9f443f26eb_q.jpg'
p1506
sg13
S'3638154970'
p1507
sas(S'Canon EOS 7D'
g4
(g6
S'\x03\x02Xl\xd5\x1a\x8d?'
tRp1508
tp1509
(lp1510
(dp1511
g11
S'http://farm9.staticflickr.com/8066/8190677086_5de4d83489_q.jpg'
p1512
sg13
S'8190677086'
p1513
sa(dp1514
g11
S'http://farm8.staticflickr.com/7195/6936821869_e43c1f361b_q.jpg'
p1515
sg13
S'6936821869'
p1516
sa(dp1517
g11
S'http://farm7.staticflickr.com/6221/6282856697_d24f92618d_q.jpg'
p1518
sg13
S'6282856697'
p1519
sa(dp1520
g11
S'http://farm8.staticflickr.com/7167/6811360091_c063f50b06_q.jpg'
p1521
sg13
S'6811360091'
p1522
sa(dp1523
g11
S'http://farm3.staticflickr.com/2714/4394940278_b4f7a1e055_q.jpg'
p1524
sg13
S'4394940278'
p1525
sa(dp1526
g11
S'http://farm8.staticflickr.com/7005/6409017089_4bf10760eb_q.jpg'
p1527
sg13
S'6409017089'
p1528
sa(dp1529
g11
S'http://farm8.staticflickr.com/7164/6515250081_3fbf5740dc_q.jpg'
p1530
sg13
S'6515250081'
p1531
sa(dp1532
g11
S'http://farm6.staticflickr.com/5289/5326036553_b0c5b30120_q.jpg'
p1533
sg13
S'5326036553'
p1534
sa(dp1535
g11
S'http://farm9.staticflickr.com/8473/8141341249_865bd3dd75_q.jpg'
p1536
sg13
S'8141341249'
p1537
sa(dp1538
g11
S'http://farm8.staticflickr.com/7143/6688768203_eeb73795c0_q.jpg'
p1539
sg13
S'6688768203'
p1540
sassS'people'
p1541
(dp1542
(S'Canon EOS 5D'
g4
(g6
S'\xbd\xe5\xfc\x99\x1a\xb5\x92?'
tRp1543
tp1544
(lp1545
(dp1546
g11
S'http://farm4.staticflickr.com/3609/3321513042_3f0ed73035_q.jpg'
p1547
sg13
S'3321513042'
p1548
sa(dp1549
g11
S'http://farm4.staticflickr.com/3641/3333796130_2fd3fe7ee9_q.jpg'
p1550
sg13
S'3333796130'
p1551
sa(dp1552
g11
S'http://farm1.staticflickr.com/150/411888876_0fa31e2fa6_q.jpg'
p1553
sg13
S'411888876'
p1554
sa(dp1555
g11
S'http://farm1.staticflickr.com/191/489131360_fd314bb472_q.jpg'
p1556
sg13
S'489131360'
p1557
sa(dp1558
g11
S'http://farm4.staticflickr.com/3468/3371071906_648982f56c_q.jpg'
p1559
sg13
S'3371071906'
p1560
sa(dp1561
g11
S'http://farm4.staticflickr.com/3008/2886512739_6a1abb97b9_q.jpg'
p1562
sg13
S'2886512739'
p1563
sa(dp1564
g11
S'http://farm4.staticflickr.com/3055/2813497743_4ac79f1717_q.jpg'
p1565
sg13
S'2813497743'
p1566
sa(dp1567
g11
S'http://farm2.staticflickr.com/1300/1123295341_31d097a281_q.jpg'
p1568
sg13
S'1123295341'
p1569
sa(dp1570
g11
S'http://farm4.staticflickr.com/3435/3253066691_d0f5c71ee0_q.jpg'
p1571
sg13
S'3253066691'
p1572
sa(dp1573
g11
S'http://farm4.staticflickr.com/3323/3233397451_3e62827542_q.jpg'
p1574
sg13
S'3233397451'
p1575
sas(S'Canon EOS 30D'
g4
(g6
S'Fu\xe0%~\xc1\x8c?'
tRp1576
tp1577
(lp1578
(dp1579
g11
S'http://farm2.staticflickr.com/1103/3166940058_88278b2627_q.jpg'
p1580
sg13
S'3166940058'
p1581
sa(dp1582
g11
S'http://farm1.staticflickr.com/225/503633282_7c0b46356a_q.jpg'
p1583
sg13
S'503633282'
p1584
sa(dp1585
g11
S'http://farm3.staticflickr.com/2029/2124978385_2ca77c66d3_q.jpg'
p1586
sg13
S'2124978385'
p1587
sa(dp1588
g11
S'http://farm1.staticflickr.com/81/237994176_e4ced20dae_q.jpg'
p1589
sg13
S'237994176'
p1590
sa(dp1591
g11
S'http://farm4.staticflickr.com/3255/2538850617_0ddb9ab3fd_q.jpg'
p1592
sg13
S'2538850617'
p1593
sa(dp1594
g11
S'http://farm1.staticflickr.com/81/271266950_f1c15825c8_q.jpg'
p1595
sg13
S'271266950'
p1596
sa(dp1597
g11
S'http://farm3.staticflickr.com/2031/2112159640_02886f7e11_q.jpg'
p1598
sg13
S'2112159640'
p1599
sa(dp1600
g11
S'http://farm3.staticflickr.com/2161/1874274054_26f628dd44_q.jpg'
p1601
sg13
S'1874274054'
p1602
sa(dp1603
g11
S'http://farm3.staticflickr.com/2308/1601434974_f28ea2f5d0_q.jpg'
p1604
sg13
S'1601434974'
p1605
sa(dp1606
g11
S'http://farm3.staticflickr.com/2062/2291379248_6eb36f4309_q.jpg'
p1607
sg13
S'2291379248'
p1608
sas(S'Canon EOS 50D'
g4
(g6
S'}I\xe4\xe9\x92\xb0\x91?'
tRp1609
tp1610
(lp1611
(dp1612
g11
S'http://farm3.staticflickr.com/2561/4133145308_e7165d0fcf_q.jpg'
p1613
sg13
S'4133145308'
p1614
sa(dp1615
g11
S'http://farm4.staticflickr.com/3581/3551738090_149b53eed4_q.jpg'
p1616
sg13
S'3551738090'
p1617
sa(dp1618
g11
S'http://farm4.staticflickr.com/3644/3447700408_f38125326d_q.jpg'
p1619
sg13
S'3447700408'
p1620
sa(dp1621
g11
S'http://farm5.staticflickr.com/4085/5058396477_3180b1f9cf_q.jpg'
p1622
sg13
S'5058396477'
p1623
sa(dp1624
g11
S'http://farm6.staticflickr.com/5085/5323011079_074615ae81_q.jpg'
p1625
sg13
S'5323011079'
p1626
sa(dp1627
g11
S'http://farm4.staticflickr.com/3577/3638154970_9f443f26eb_q.jpg'
p1628
sg13
S'3638154970'
p1629
sa(dp1630
g11
S'http://farm4.staticflickr.com/3363/3638428284_5a90a7f952_q.jpg'
p1631
sg13
S'3638428284'
p1632
sa(dp1633
g11
S'http://farm4.staticflickr.com/3566/3603281126_3c0270ae8b_q.jpg'
p1634
sg13
S'3603281126'
p1635
sa(dp1636
g11
S'http://farm5.staticflickr.com/4128/5211179869_27bcdeefe0_q.jpg'
p1637
sg13
S'5211179869'
p1638
sa(dp1639
g11
S'http://farm5.staticflickr.com/4154/5000585207_2234bd53aa_q.jpg'
p1640
sg13
S'5000585207'
p1641
sas(S'Nikon D700'
g4
(g6
S'L\xf2\x90\xa6\xde\xe9\xa9?'
tRp1642
tp1643
(lp1644
(dp1645
g11
S'http://farm4.staticflickr.com/3658/3496855330_6de412f4b9_q.jpg'
p1646
sg13
S'3496855330'
p1647
sa(dp1648
g11
S'http://farm4.staticflickr.com/3310/3635319152_da7b0459ec_q.jpg'
p1649
sg13
S'3635319152'
p1650
sa(dp1651
g11
S'http://farm3.staticflickr.com/2505/3842778696_5a328a01a7_q.jpg'
p1652
sg13
S'3842778696'
p1653
sa(dp1654
g11
S'http://farm5.staticflickr.com/4084/4963965458_688ede87be_q.jpg'
p1655
sg13
S'4963965458'
p1656
sa(dp1657
g11
S'http://farm4.staticflickr.com/3419/3316063466_a5d833bc0f_q.jpg'
p1658
sg13
S'3316063466'
p1659
sa(dp1660
g11
S'http://farm4.staticflickr.com/3487/3730902239_53570f2cdb_q.jpg'
p1661
sg13
S'3730902239'
p1662
sa(dp1663
g11
S'http://farm4.staticflickr.com/3546/3374513049_1489915952_q.jpg'
p1664
sg13
S'3374513049'
p1665
sa(dp1666
g11
S'http://farm3.staticflickr.com/2579/4050837423_859b51e014_q.jpg'
p1667
sg13
S'4050837423'
p1668
sa(dp1669
g11
S'http://farm4.staticflickr.com/3111/3104868544_3a41ff5653_q.jpg'
p1670
sg13
S'3104868544'
p1671
sa(dp1672
g11
S'http://farm4.staticflickr.com/3090/3097067609_ce1d93bbb5_q.jpg'
p1673
sg13
S'3097067609'
p1674
sas(S'Canon EOS 7D'
g4
(g6
S'F\x08\x99L\x08~\x89?'
tRp1675
tp1676
(lp1677
(dp1678
g11
S'http://farm3.staticflickr.com/2698/5845973085_516a98f4d7_q.jpg'
p1679
sg13
S'5845973085'
p1680
sa(dp1681
g11
S'http://farm5.staticflickr.com/4081/4771478926_517c4e5982_q.jpg'
p1682
sg13
S'4771478926'
p1683
sa(dp1684
g11
S'http://farm9.staticflickr.com/8066/8190677086_5de4d83489_q.jpg'
p1685
sg13
S'8190677086'
p1686
sa(dp1687
g11
S'http://farm8.staticflickr.com/7195/6936821869_e43c1f361b_q.jpg'
p1688
sg13
S'6936821869'
p1689
sa(dp1690
g11
S'http://farm3.staticflickr.com/2752/4426288835_9f97bf01fc_q.jpg'
p1691
sg13
S'4426288835'
p1692
sa(dp1693
g11
S'http://farm7.staticflickr.com/6221/6282856697_d24f92618d_q.jpg'
p1694
sg13
S'6282856697'
p1695
sa(dp1696
g11
S'http://farm9.staticflickr.com/8490/8195251185_a479f6f515_q.jpg'
p1697
sg13
S'8195251185'
p1698
sa(dp1699
g11
S'http://farm3.staticflickr.com/2714/4394940278_b4f7a1e055_q.jpg'
p1700
sg13
S'4394940278'
p1701
sa(dp1702
g11
S'http://farm2.staticflickr.com/1151/5117718076_6d4fc15463_q.jpg'
p1703
sg13
S'5117718076'
p1704
sa(dp1705
g11
S'http://farm5.staticflickr.com/4068/4530662749_311cd4c6f8_q.jpg'
p1706
sg13
S'4530662749'
p1707
sas(S'Canon EOS 40D'
g4
(g6
S'>a\x19G\xdc\x03\x84?'
tRp1708
tp1709
(lp1710
(dp1711
g11
S'http://farm4.staticflickr.com/3074/2799403722_a310cc313e_q.jpg'
p1712
sg13
S'2799403722'
p1713
sa(dp1714
g11
S'http://farm4.staticflickr.com/3037/2640894515_19e008eaec_q.jpg'
p1715
sg13
S'2640894515'
p1716
sa(dp1717
g11
S'http://farm4.staticflickr.com/3233/2734516165_278f83beb1_q.jpg'
p1718
sg13
S'2734516165'
p1719
sa(dp1720
g11
S'http://farm4.staticflickr.com/3317/3618277091_81b324aaf0_q.jpg'
p1721
sg13
S'3618277091'
p1722
sa(dp1723
g11
S'http://farm4.staticflickr.com/3262/2548248781_ba329e4267_q.jpg'
p1724
sg13
S'2548248781'
p1725
sa(dp1726
g11
S'http://farm3.staticflickr.com/2759/4395497256_d3bac09367_q.jpg'
p1727
sg13
S'4395497256'
p1728
sas(S'Nikon D80'
g4
(g6
S"\xbc\xc7\xaa'\x03n\x8a?"
tRp1729
tp1730
(lp1731
(dp1732
g11
S'http://farm2.staticflickr.com/1365/1060151652_bacb03ef2b_q.jpg'
p1733
sg13
S'1060151652'
p1734
sa(dp1735
g11
S'http://farm3.staticflickr.com/2495/3858677949_20e4e3f7d5_q.jpg'
p1736
sg13
S'3858677949'
p1737
sa(dp1738
g11
S'http://farm3.staticflickr.com/2094/2226394290_e3831aed7c_q.jpg'
p1739
sg13
S'2226394290'
p1740
sa(dp1741
g11
S'http://farm3.staticflickr.com/2525/3735363572_84a934d825_q.jpg'
p1742
sg13
S'3735363572'
p1743
sa(dp1744
g11
S'http://farm4.staticflickr.com/3437/3795665428_fe07dfedce_q.jpg'
p1745
sg13
S'3795665428'
p1746
sa(dp1747
g11
S'http://farm3.staticflickr.com/2543/3757588379_7ceb7aa04e_q.jpg'
p1748
sg13
S'3757588379'
p1749
sa(dp1750
g11
S'http://farm6.staticflickr.com/5046/5344950448_ff33fa1b46_q.jpg'
p1751
sg13
S'5344950448'
p1752
sa(dp1753
g11
S'http://farm3.staticflickr.com/2675/3761810608_2d88aff5fc_q.jpg'
p1754
sg13
S'3761810608'
p1755
sa(dp1756
g11
S'http://farm3.staticflickr.com/2428/3805195496_f754366820_q.jpg'
p1757
sg13
S'3805195496'
p1758
sa(dp1759
g11
S'http://farm4.staticflickr.com/3496/3178735627_76e181f05c_q.jpg'
p1760
sg13
S'3178735627'
p1761
sas(S'Nikon D70s'
g4
(g6
S'\x11F\xf0\xc1\xa6\x0b\x88?'
tRp1762
tp1763
(lp1764
(dp1765
g11
S'http://farm2.staticflickr.com/1237/1313679743_a9ec7f2870_q.jpg'
p1766
sg13
S'1313679743'
p1767
sa(dp1768
g11
S'http://farm2.staticflickr.com/1341/542521483_8f4632f02a_q.jpg'
p1769
sg13
S'542521483'
p1770
sa(dp1771
g11
S'http://farm1.staticflickr.com/103/307534324_17717cd952_q.jpg'
p1772
sg13
S'307534324'
p1773
sa(dp1774
g11
S'http://farm1.staticflickr.com/83/268882271_5cd3ac3ba1_q.jpg'
p1775
sg13
S'268882271'
p1776
sa(dp1777
g11
S'http://farm3.staticflickr.com/2728/4322574024_5afe7362db_q.jpg'
p1778
sg13
S'4322574024'
p1779
sa(dp1780
g11
S'http://farm5.staticflickr.com/4045/4620269512_2990c49472_q.jpg'
p1781
sg13
S'4620269512'
p1782
sas(S'Nikon D90'
g4
(g6
S'\xc5^\x17\x8c\xab\xbc\x8e?'
tRp1783
tp1784
(lp1785
(dp1786
g11
S'http://farm5.staticflickr.com/4003/4702708910_3191d9b9fa_q.jpg'
p1787
sg13
S'4702708910'
p1788
sa(dp1789
g11
S'http://farm6.staticflickr.com/5164/5253739023_faac96010d_q.jpg'
p1790
sg13
S'5253739023'
p1791
sa(dp1792
g11
S'http://farm5.staticflickr.com/4098/4763291528_daff5af148_q.jpg'
p1793
sg13
S'4763291528'
p1794
sa(dp1795
g11
S'http://farm2.staticflickr.com/1315/5131495638_8a29623665_q.jpg'
p1796
sg13
S'5131495638'
p1797
sa(dp1798
g11
S'http://farm5.staticflickr.com/4011/4407660745_6f979a02d0_q.jpg'
p1799
sg13
S'4407660745'
p1800
sa(dp1801
g11
S'http://farm5.staticflickr.com/4098/4829428379_1c71cc88e2_q.jpg'
p1802
sg13
S'4829428379'
p1803
sa(dp1804
g11
S'http://farm5.staticflickr.com/4069/4654914993_145c405f8e_q.jpg'
p1805
sg13
S'4654914993'
p1806
sa(dp1807
g11
S'http://farm5.staticflickr.com/4049/4407796210_9bc73b8582_q.jpg'
p1808
sg13
S'4407796210'
p1809
sa(dp1810
g11
S'http://farm3.staticflickr.com/2520/4149868983_23da1bd580_q.jpg'
p1811
sg13
S'4149868983'
p1812
sa(dp1813
g11
S'http://farm6.staticflickr.com/5133/5480601290_a4a8ccab0a_q.jpg'
p1814
sg13
S'5480601290'
p1815
sas(S'Canon EOS 5D Mark II'
g4
(g6
S'A\x08j\x90\xf3\xc3\x9e?'
tRp1816
tp1817
(lp1818
(dp1819
g11
S'http://farm5.staticflickr.com/4106/5016757293_4eb3371fa6_q.jpg'
p1820
sg13
S'5016757293'
p1821
sa(dp1822
g11
S'http://farm7.staticflickr.com/6198/6071075623_aab3ae3b57_q.jpg'
p1823
sg13
S'6071075623'
p1824
sa(dp1825
g11
S'http://farm5.staticflickr.com/4116/4901937167_d0923d68cd_q.jpg'
p1826
sg13
S'4901937167'
p1827
sa(dp1828
g11
S'http://farm7.staticflickr.com/6236/6357381361_cab0a3a412_q.jpg'
p1829
sg13
S'6357381361'
p1830
sa(dp1831
g11
S'http://farm7.staticflickr.com/6099/6210568442_2701156861_q.jpg'
p1832
sg13
S'6210568442'
p1833
sa(dp1834
g11
S'http://farm6.staticflickr.com/5049/5282677229_66365f5a65_q.jpg'
p1835
sg13
S'5282677229'
p1836
sa(dp1837
g11
S'http://farm4.staticflickr.com/3085/3213180982_e847d48b2a_q.jpg'
p1838
sg13
S'3213180982'
p1839
sa(dp1840
g11
S'http://farm5.staticflickr.com/4066/4410000599_87acf39f88_q.jpg'
p1841
sg13
S'4410000599'
p1842
sa(dp1843
g11
S'http://farm3.staticflickr.com/2693/4057142935_b81800d68c_q.jpg'
p1844
sg13
S'4057142935'
p1845
sa(dp1846
g11
S'http://farm7.staticflickr.com/6157/6199413086_896d976685_q.jpg'
p1847
sg13
S'6199413086'
p1848
sassS'cat'
p1849
(dp1850
(S'Nikon D200'
g4
(g6
S't\xfc&\x08 #\x88?'
tRp1851
tp1852
(lp1853
(dp1854
g11
S'http://farm1.staticflickr.com/82/234368501_a946183032_q.jpg'
p1855
sg13
S'234368501'
p1856
sa(dp1857
g11
S'http://farm1.staticflickr.com/220/512450093_7717fb8ce8_q.jpg'
p1858
sg13
S'512450093'
p1859
sa(dp1860
g11
S'http://farm1.staticflickr.com/87/234218679_b3b783a217_q.jpg'
p1861
sg13
S'234218679'
p1862
sa(dp1863
g11
S'http://farm1.staticflickr.com/151/376918685_f1b7e7363a_q.jpg'
p1864
sg13
S'376918685'
p1865
sa(dp1866
g11
S'http://farm1.staticflickr.com/113/272407160_4d87ca9a68_q.jpg'
p1867
sg13
S'272407160'
p1868
sa(dp1869
g11
S'http://farm1.staticflickr.com/211/472331456_46326901b1_q.jpg'
p1870
sg13
S'472331456'
p1871
sa(dp1872
g11
S'http://farm4.staticflickr.com/3642/3632681654_b6822367af_q.jpg'
p1873
sg13
S'3632681654'
p1874
sa(dp1875
g11
S'http://farm3.staticflickr.com/2441/3770180051_bfee1c464c_q.jpg'
p1876
sg13
S'3770180051'
p1877
sa(dp1878
g11
S'http://farm1.staticflickr.com/87/231141256_3e361e28e5_q.jpg'
p1879
sg13
S'231141256'
p1880
sa(dp1881
g11
S'http://farm4.staticflickr.com/3235/2505481253_04ef9cf929_q.jpg'
p1882
sg13
S'2505481253'
p1883
sas(S'Canon EOS 5D'
g4
(g6
S'5\xa8\xf5\xfa*\xb5\x95?'
tRp1884
tp1885
(lp1886
(dp1887
g11
S'http://farm4.staticflickr.com/3415/3180053560_3a9e326ba3_q.jpg'
p1888
sg13
S'3180053560'
p1889
sa(dp1890
g11
S'http://farm1.staticflickr.com/51/169490999_c8dde6b3cc_q.jpg'
p1891
sg13
S'169490999'
p1892
sa(dp1893
g11
S'http://farm1.staticflickr.com/29/90655247_902db6beef_q.jpg'
p1894
sg13
S'90655247'
p1895
sa(dp1896
g11
S'http://farm1.staticflickr.com/114/315606314_7eb7aeb3db_q.jpg'
p1897
sg13
S'315606314'
p1898
sa(dp1899
g11
S'http://farm4.staticflickr.com/3179/2967520259_9d810a8c0a_q.jpg'
p1900
sg13
S'2967520259'
p1901
sa(dp1902
g11
S'http://farm4.staticflickr.com/3616/3404663426_a8c6525f25_q.jpg'
p1903
sg13
S'3404663426'
p1904
sa(dp1905
g11
S'http://farm1.staticflickr.com/147/436382917_5450a9c506_q.jpg'
p1906
sg13
S'436382917'
p1907
sa(dp1908
g11
S'http://farm1.staticflickr.com/60/272439356_11eb11d068_q.jpg'
p1909
sg13
S'272439356'
p1910
sa(dp1911
g11
S'http://farm3.staticflickr.com/2153/3530952197_fb32ff63c9_q.jpg'
p1912
sg13
S'3530952197'
p1913
sa(dp1914
g11
S'http://farm4.staticflickr.com/3243/2671256434_d5eb2e40d4_q.jpg'
p1915
sg13
S'2671256434'
p1916
sas(S'Nikon D70'
g4
(g6
S'\xf7X]\x1eH\x9a\x9a?'
tRp1917
tp1918
(lp1919
(dp1920
g11
S'http://farm1.staticflickr.com/11/17369470_19c12d396f_q.jpg'
p1921
sg13
S'17369470'
p1922
sa(dp1923
g11
S'http://farm1.staticflickr.com/35/70471485_a20c515d78_q.jpg'
p1924
sg13
S'70471485'
p1925
sa(dp1926
g11
S'http://farm1.staticflickr.com/11/16227947_e6abfda0df_q.jpg'
p1927
sg13
S'16227947'
p1928
sa(dp1929
g11
S'http://farm1.staticflickr.com/23/26292821_66ea4626ce_q.jpg'
p1930
sg13
S'26292821'
p1931
sa(dp1932
g11
S'http://farm1.staticflickr.com/22/31922425_17c4894423_q.jpg'
p1933
sg13
S'31922425'
p1934
sa(dp1935
g11
S'http://farm2.staticflickr.com/1168/593200774_1845373e9a_q.jpg'
p1936
sg13
S'593200774'
p1937
sa(dp1938
g11
S'http://farm1.staticflickr.com/27/37606178_cf8a50fee9_q.jpg'
p1939
sg13
S'37606178'
p1940
sa(dp1941
g11
S'http://farm1.staticflickr.com/22/37329298_c85fc69658_q.jpg'
p1942
sg13
S'37329298'
p1943
sa(dp1944
g11
S'http://farm1.staticflickr.com/112/311285917_ac31adb80a_q.jpg'
p1945
sg13
S'311285917'
p1946
sa(dp1947
g11
S'http://farm1.staticflickr.com/21/32599394_0695e2a50e_q.jpg'
p1948
sg13
S'32599394'
p1949
sas(S'Canon EOS 20D'
g4
(g6
S'\x13\xbc\xdd\xd2w\xe9\x8a?'
tRp1950
tp1951
(lp1952
(dp1953
g11
S'http://farm1.staticflickr.com/144/330701382_2a1c617105_q.jpg'
p1954
sg13
S'330701382'
p1955
sa(dp1956
g11
S'http://farm1.staticflickr.com/34/122892386_6cd36dc0c4_q.jpg'
p1957
sg13
S'122892386'
p1958
sa(dp1959
g11
S'http://farm2.staticflickr.com/1339/1075777403_3ffda36845_q.jpg'
p1960
sg13
S'1075777403'
p1961
sa(dp1962
g11
S'http://farm1.staticflickr.com/94/205751737_854ae794ca_q.jpg'
p1963
sg13
S'205751737'
p1964
sa(dp1965
g11
S'http://farm1.staticflickr.com/44/132425778_714cd39fb5_q.jpg'
p1966
sg13
S'132425778'
p1967
sa(dp1968
g11
S'http://farm1.staticflickr.com/79/217915295_2ca9852da7_q.jpg'
p1969
sg13
S'217915295'
p1970
sa(dp1971
g11
S'http://farm1.staticflickr.com/99/290365468_77d5860917_q.jpg'
p1972
sg13
S'290365468'
p1973
sa(dp1974
g11
S'http://farm1.staticflickr.com/19/22916257_e041470c12_q.jpg'
p1975
sg13
S'22916257'
p1976
sa(dp1977
g11
S'http://farm2.staticflickr.com/1308/1338510027_ac72c78df2_q.jpg'
p1978
sg13
S'1338510027'
p1979
sa(dp1980
g11
S'http://farm1.staticflickr.com/189/497612202_86e7ff094f_q.jpg'
p1981
sg13
S'497612202'
p1982
sas(S'Canon EOS 40D'
g4
(g6
S'\xd7\xcf9\xa6\xa1\xdc\x95?'
tRp1983
tp1984
(lp1985
(dp1986
g11
S'http://farm3.staticflickr.com/2122/3532887307_62a4706fac_q.jpg'
p1987
sg13
S'3532887307'
p1988
sa(dp1989
g11
S'http://farm4.staticflickr.com/3045/2954325338_8a74a9c652_q.jpg'
p1990
sg13
S'2954325338'
p1991
sa(dp1992
g11
S'http://farm3.staticflickr.com/2287/2168187456_c8303e2f37_q.jpg'
p1993
sg13
S'2168187456'
p1994
sa(dp1995
g11
S'http://farm4.staticflickr.com/3549/3331339776_3e61fe1caa_q.jpg'
p1996
sg13
S'3331339776'
p1997
sa(dp1998
g11
S'http://farm3.staticflickr.com/2063/2310553300_e82c55a5f6_q.jpg'
p1999
sg13
S'2310553300'
p2000
sa(dp2001
g11
S'http://farm3.staticflickr.com/2235/2192001497_02a0b21f26_q.jpg'
p2002
sg13
S'2192001497'
p2003
sa(dp2004
g11
S'http://farm4.staticflickr.com/3325/3415798034_94c1cb0692_q.jpg'
p2005
sg13
S'3415798034'
p2006
sa(dp2007
g11
S'http://farm3.staticflickr.com/2772/4351109568_4700cd7e27_q.jpg'
p2008
sg13
S'4351109568'
p2009
sa(dp2010
g11
S'http://farm2.staticflickr.com/1170/5098888565_1bcdb2aee3_q.jpg'
p2011
sg13
S'5098888565'
p2012
sa(dp2013
g11
S'http://farm4.staticflickr.com/3088/2837355370_cc0a7ff1ff_q.jpg'
p2014
sg13
S'2837355370'
p2015
sas(S'Canon EOS 5D Mark II'
g4
(g6
S',a\xd9\xa9ym\x93?'
tRp2016
tp2017
(lp2018
(dp2019
g11
S'http://farm8.staticflickr.com/7171/6414053739_1297921b73_q.jpg'
p2020
sg13
S'6414053739'
p2021
sa(dp2022
g11
S'http://farm3.staticflickr.com/2744/4225101030_d63877304a_q.jpg'
p2023
sg13
S'4225101030'
p2024
sa(dp2025
g11
S'http://farm4.staticflickr.com/3537/3457329995_ed8e47f46e_q.jpg'
p2026
sg13
S'3457329995'
p2027
sa(dp2028
g11
S'http://farm7.staticflickr.com/6046/6405325917_718414c995_q.jpg'
p2029
sg13
S'6405325917'
p2030
sa(dp2031
g11
S'http://farm8.staticflickr.com/7023/6418423677_450636fc04_q.jpg'
p2032
sg13
S'6418423677'
p2033
sa(dp2034
g11
S'http://farm7.staticflickr.com/6151/6176283730_e04d1101aa_q.jpg'
p2035
sg13
S'6176283730'
p2036
sa(dp2037
g11
S'http://farm6.staticflickr.com/5467/6922432242_66526a22d0_q.jpg'
p2038
sg13
S'6922432242'
p2039
sa(dp2040
g11
S'http://farm6.staticflickr.com/5344/7068513787_0a0f0a7730_q.jpg'
p2041
sg13
S'7068513787'
p2042
sa(dp2043
g11
S'http://farm8.staticflickr.com/7067/6920088879_bc9dafe5df_q.jpg'
p2044
sg13
S'6920088879'
p2045
sa(dp2046
g11
S'http://farm8.staticflickr.com/7131/7822799288_42792f8e4f_q.jpg'
p2047
sg13
S'7822799288'
p2048
sas(S'Nikon D300'
g4
(g6
S'\xfb\x1ae\x7f\xd1\xaa\x8b?'
tRp2049
tp2050
(lp2051
(dp2052
g11
S'http://farm4.staticflickr.com/3169/2845838787_4467b2e02b_q.jpg'
p2053
sg13
S'2845838787'
p2054
sa(dp2055
g11
S'http://farm4.staticflickr.com/3013/2844515446_943155e700_q.jpg'
p2056
sg13
S'2844515446'
p2057
sa(dp2058
g11
S'http://farm4.staticflickr.com/3274/2768722606_1085889cf0_q.jpg'
p2059
sg13
S'2768722606'
p2060
sa(dp2061
g11
S'http://farm3.staticflickr.com/2284/2531409306_877bdcf1df_q.jpg'
p2062
sg13
S'2531409306'
p2063
sa(dp2064
g11
S'http://farm4.staticflickr.com/3326/3237881478_1acd7f99e6_q.jpg'
p2065
sg13
S'3237881478'
p2066
sa(dp2067
g11
S'http://farm3.staticflickr.com/2530/4013803176_d3014b5027_q.jpg'
p2068
sg13
S'4013803176'
p2069
sa(dp2070
g11
S'http://farm3.staticflickr.com/2594/3906654611_541d59f6d7_q.jpg'
p2071
sg13
S'3906654611'
p2072
sa(dp2073
g11
S'http://farm4.staticflickr.com/3032/2844012888_27977fdbd5_q.jpg'
p2074
sg13
S'2844012888'
p2075
sa(dp2076
g11
S'http://farm4.staticflickr.com/3394/3580361025_74d37fa27c_q.jpg'
p2077
sg13
S'3580361025'
p2078
sa(dp2079
g11
S'http://farm4.staticflickr.com/3333/3668709029_6cba2e95bc_q.jpg'
p2080
sg13
S'3668709029'
p2081
sas(S'Canon EOS 30D'
g4
(g6
S'[\x17\xa2\x84\x88v\x89?'
tRp2082
tp2083
(lp2084
(dp2085
g11
S'http://farm3.staticflickr.com/2340/2089504883_863fb11b0a_q.jpg'
p2086
sg13
S'2089504883'
p2087
sa(dp2088
g11
S'http://farm2.staticflickr.com/1352/1093249228_9cfdce9b84_q.jpg'
p2089
sg13
S'1093249228'
p2090
sa(dp2091
g11
S'http://farm3.staticflickr.com/2351/2059143917_519699b89a_q.jpg'
p2092
sg13
S'2059143917'
p2093
sa(dp2094
g11
S'http://farm5.staticflickr.com/4135/4915974911_3f404e4d6b_q.jpg'
p2095
sg13
S'4915974911'
p2096
sa(dp2097
g11
S'http://farm2.staticflickr.com/1424/558211746_bf95e2edff_q.jpg'
p2098
sg13
S'558211746'
p2099
sas(S'Canon EOS-1D Mark IV'
g4
(g6
S'\x89B\xfe\xa8\x04\xda\x84?'
tRp2100
tp2101
(lp2102
(dp2103
g11
S'http://farm6.staticflickr.com/5253/5510159204_5b24de0cb3_q.jpg'
p2104
sg13
S'5510159204'
p2105
sa(dp2106
g11
S'http://farm6.staticflickr.com/5089/5287436585_ce631d8746_q.jpg'
p2107
sg13
S'5287436585'
p2108
sa(dp2109
g11
S'http://farm6.staticflickr.com/5087/5360626866_682a242944_q.jpg'
p2110
sg13
S'5360626866'
p2111
sa(dp2112
g11
S'http://farm6.staticflickr.com/5162/5307061134_7ca4c0308e_q.jpg'
p2113
sg13
S'5307061134'
p2114
sas(S'Nikon D70s'
g4
(g6
S'i\x7fZ\xabh5\x8a?'
tRp2115
tp2116
(lp2117
(dp2118
g11
S'http://farm1.staticflickr.com/92/263203091_7a5006fc75_q.jpg'
p2119
sg13
S'263203091'
p2120
sa(dp2121
g11
S'http://farm1.staticflickr.com/137/319913934_6d82915c11_q.jpg'
p2122
sg13
S'319913934'
p2123
sa(dp2124
g11
S'http://farm1.staticflickr.com/26/62152201_24f8ef0b63_q.jpg'
p2125
sg13
S'62152201'
p2126
sa(dp2127
g11
S'http://farm1.staticflickr.com/185/368074494_a6150bef58_q.jpg'
p2128
sg13
S'368074494'
p2129
sa(dp2130
g11
S'http://farm5.staticflickr.com/4032/4592361218_17c88e22ef_q.jpg'
p2131
sg13
S'4592361218'
p2132
sa(dp2133
g11
S'http://farm1.staticflickr.com/162/396451935_89206f09e0_q.jpg'
p2134
sg13
S'396451935'
p2135
sa(dp2136
g11
S'http://farm1.staticflickr.com/177/382794427_a6852402f3_q.jpg'
p2137
sg13
S'382794427'
p2138
sa(dp2139
g11
S'http://farm1.staticflickr.com/41/80032093_965f9f9707_q.jpg'
p2140
sg13
S'80032093'
p2141
sa(dp2142
g11
S'http://farm1.staticflickr.com/26/60699814_3b88fd33e3_q.jpg'
p2143
sg13
S'60699814'
p2144
sa(dp2145
g11
S'http://farm2.staticflickr.com/1392/580401331_ac6cdfc0b8_q.jpg'
p2146
sg13
S'580401331'
p2147
sassS'pet'
p2148
(dp2149
(S'Panasonic DMC-FZ50'
g4
(g6
S'\x16\xbd4\x02\xe3\xfb\x80?'
tRp2150
tp2151
(lp2152
(dp2153
g11
S'http://farm5.staticflickr.com/4137/4848824885_f16d79811c_q.jpg'
p2154
sg13
S'4848824885'
p2155
sa(dp2156
g11
S'http://farm5.staticflickr.com/4094/4739078227_8f713b70a5_q.jpg'
p2157
sg13
S'4739078227'
p2158
sa(dp2159
g11
S'http://farm5.staticflickr.com/4032/4699088828_358984f423_q.jpg'
p2160
sg13
S'4699088828'
p2161
sa(dp2162
g11
S'http://farm2.staticflickr.com/1229/4724627094_23d8322a63_q.jpg'
p2163
sg13
S'4724627094'
p2164
sa(dp2165
g11
S'http://farm2.staticflickr.com/1214/743308548_7c23a0d48c_q.jpg'
p2166
sg13
S'743308548'
p2167
sa(dp2168
g11
S'http://farm3.staticflickr.com/2325/2506805504_9bce654ba1_q.jpg'
p2169
sg13
S'2506805504'
p2170
sa(dp2171
g11
S'http://farm4.staticflickr.com/3298/3193210225_36b4cb1091_q.jpg'
p2172
sg13
S'3193210225'
p2173
sa(dp2174
g11
S'http://farm1.staticflickr.com/108/296385277_3593dfe0d5_q.jpg'
p2175
sg13
S'296385277'
p2176
sa(dp2177
g11
S'http://farm2.staticflickr.com/1297/538816553_171cd675c0_q.jpg'
p2178
sg13
S'538816553'
p2179
sa(dp2180
g11
S'http://farm2.staticflickr.com/1286/4692362083_d4095dfa58_q.jpg'
p2181
sg13
S'4692362083'
p2182
sas(S'Nikon D50'
g4
(g6
S'\x83M\x86\xd8\xd4\xa8\x80?'
tRp2183
tp2184
(lp2185
(dp2186
g11
S'http://farm1.staticflickr.com/113/315150549_e0bd87c63a_q.jpg'
p2187
sg13
S'315150549'
p2188
sa(dp2189
g11
S'http://farm1.staticflickr.com/83/236906781_77ed02e159_q.jpg'
p2190
sg13
S'236906781'
p2191
sa(dp2192
g11
S'http://farm1.staticflickr.com/177/409544142_4e24564848_q.jpg'
p2193
sg13
S'409544142'
p2194
sa(dp2195
g11
S'http://farm1.staticflickr.com/182/425784378_0922d92869_q.jpg'
p2196
sg13
S'425784378'
p2197
sa(dp2198
g11
S'http://farm1.staticflickr.com/103/415278538_d74b3ba80f_q.jpg'
p2199
sg13
S'415278538'
p2200
sa(dp2201
g11
S'http://farm1.staticflickr.com/57/212239845_d03ab01712_q.jpg'
p2202
sg13
S'212239845'
p2203
sa(dp2204
g11
S'http://farm1.staticflickr.com/169/437167504_242c11b8e4_q.jpg'
p2205
sg13
S'437167504'
p2206
sa(dp2207
g11
S'http://farm1.staticflickr.com/1/128333136_8726b34b87_q.jpg'
p2208
sg13
S'128333136'
p2209
sa(dp2210
g11
S'http://farm1.staticflickr.com/70/168665534_fe1839980a_q.jpg'
p2211
sg13
S'168665534'
p2212
sa(dp2213
g11
S'http://farm1.staticflickr.com/114/311276051_de67df04e8_q.jpg'
p2214
sg13
S'311276051'
p2215
sas(S'Fujifilm FinePix F700'
g4
(g6
S'\xb1\xd6\xc7MLZ\x86?'
tRp2216
tp2217
(lp2218
(dp2219
g11
S'http://farm1.staticflickr.com/21/25940499_71d0ebc9af_q.jpg'
p2220
sg13
S'25940499'
p2221
sa(dp2222
g11
S'http://farm1.staticflickr.com/22/25535477_4044a9a1dc_q.jpg'
p2223
sg13
S'25535477'
p2224
sa(dp2225
g11
S'http://farm1.staticflickr.com/21/25477598_5e484d8498_q.jpg'
p2226
sg13
S'25477598'
p2227
sas(S'Nikon D300'
g4
(g6
S'h\x0f\x8b+\x06\x05\x92?'
tRp2228
tp2229
(lp2230
(dp2231
g11
S'http://farm4.staticflickr.com/3360/3234047891_9f76ff89c0_q.jpg'
p2232
sg13
S'3234047891'
p2233
sa(dp2234
g11
S'http://farm3.staticflickr.com/2781/4408420942_5ee46faa5b_q.jpg'
p2235
sg13
S'4408420942'
p2236
sa(dp2237
g11
S'http://farm4.staticflickr.com/3167/2820202167_1cb91af9d9_q.jpg'
p2238
sg13
S'2820202167'
p2239
sa(dp2240
g11
S'http://farm4.staticflickr.com/3071/2443621405_c3ae04f01a_q.jpg'
p2241
sg13
S'2443621405'
p2242
sa(dp2243
g11
S'http://farm3.staticflickr.com/2318/2514777620_e6439e3e03_q.jpg'
p2244
sg13
S'2514777620'
p2245
sa(dp2246
g11
S'http://farm4.staticflickr.com/3274/3280503099_c0592711d9_q.jpg'
p2247
sg13
S'3280503099'
p2248
sa(dp2249
g11
S'http://farm4.staticflickr.com/3624/3375355505_f76a50f1b4_q.jpg'
p2250
sg13
S'3375355505'
p2251
sa(dp2252
g11
S'http://farm4.staticflickr.com/3064/2736598856_4b99238a29_q.jpg'
p2253
sg13
S'2736598856'
p2254
sa(dp2255
g11
S'http://farm4.staticflickr.com/3121/2862070585_c31d8ac957_q.jpg'
p2256
sg13
S'2862070585'
p2257
sa(dp2258
g11
S'http://farm4.staticflickr.com/3086/3142938407_d0fd524636_q.jpg'
p2259
sg13
S'3142938407'
p2260
sas(S'Canon EOS 7D'
g4
(g6
S'A5G\xb0\x96D\x86?'
tRp2261
tp2262
(lp2263
(dp2264
g11
S'http://farm5.staticflickr.com/4090/5032964264_82127f0674_q.jpg'
p2265
sg13
S'5032964264'
p2266
sa(dp2267
g11
S'http://farm5.staticflickr.com/4102/4960131742_81c3ae80e6_q.jpg'
p2268
sg13
S'4960131742'
p2269
sa(dp2270
g11
S'http://farm5.staticflickr.com/4003/4488978501_b453de2c8e_q.jpg'
p2271
sg13
S'4488978501'
p2272
sa(dp2273
g11
S'http://farm5.staticflickr.com/4053/4468416203_621888cefd_q.jpg'
p2274
sg13
S'4468416203'
p2275
sa(dp2276
g11
S'http://farm5.staticflickr.com/4029/4714087875_59eef0c560_q.jpg'
p2277
sg13
S'4714087875'
p2278
sa(dp2279
g11
S'http://farm5.staticflickr.com/4118/4890531355_c38eaaf109_q.jpg'
p2280
sg13
S'4890531355'
p2281
sa(dp2282
g11
S'http://farm6.staticflickr.com/5181/5649916590_728ac21d6d_q.jpg'
p2283
sg13
S'5649916590'
p2284
sa(dp2285
g11
S'http://farm5.staticflickr.com/4073/4893808422_8f0580450a_q.jpg'
p2286
sg13
S'4893808422'
p2287
sa(dp2288
g11
S'http://farm3.staticflickr.com/2658/4060183747_4417c50e10_q.jpg'
p2289
sg13
S'4060183747'
p2290
sa(dp2291
g11
S'http://farm5.staticflickr.com/4097/4848780189_d71f5559da_q.jpg'
p2292
sg13
S'4848780189'
p2293
sas(S'Nikon D80'
g4
(g6
S'\xe8\n\x8ca\xbeZ\x94?'
tRp2294
tp2295
(lp2296
(dp2297
g11
S'http://farm2.staticflickr.com/1238/798966354_80d761ee6c_q.jpg'
p2298
sg13
S'798966354'
p2299
sa(dp2300
g11
S'http://farm2.staticflickr.com/1188/1324990354_cf778706b9_q.jpg'
p2301
sg13
S'1324990354'
p2302
sa(dp2303
g11
S'http://farm4.staticflickr.com/3522/3275688427_79735f5747_q.jpg'
p2304
sg13
S'3275688427'
p2305
sa(dp2306
g11
S'http://farm3.staticflickr.com/2654/4080563248_90b81cdfbd_q.jpg'
p2307
sg13
S'4080563248'
p2308
sa(dp2309
g11
S'http://farm1.staticflickr.com/203/472996506_3ec26aa069_q.jpg'
p2310
sg13
S'472996506'
p2311
sa(dp2312
g11
S'http://farm4.staticflickr.com/3100/2766188723_8f84f19956_q.jpg'
p2313
sg13
S'2766188723'
p2314
sa(dp2315
g11
S'http://farm3.staticflickr.com/2228/2256339433_4bf3e1f8bc_q.jpg'
p2316
sg13
S'2256339433'
p2317
sa(dp2318
g11
S'http://farm3.staticflickr.com/2144/2084413012_daae8ab0f9_q.jpg'
p2319
sg13
S'2084413012'
p2320
sa(dp2321
g11
S'http://farm4.staticflickr.com/3348/3506005849_be4330828a_q.jpg'
p2322
sg13
S'3506005849'
p2323
sa(dp2324
g11
S'http://farm4.staticflickr.com/3572/3367570576_311d678065_q.jpg'
p2325
sg13
S'3367570576'
p2326
sas(S'Canon EOS Digital Rebel XTi'
g4
(g6
S'\x91\x13\xdb\x0fg\x95\x83?'
tRp2327
tp2328
(lp2329
(dp2330
g11
S'http://farm3.staticflickr.com/2316/2268339194_d99faafc66_q.jpg'
p2331
sg13
S'2268339194'
p2332
sa(dp2333
g11
S'http://farm4.staticflickr.com/3154/3058362894_07109b4db8_q.jpg'
p2334
sg13
S'3058362894'
p2335
sa(dp2336
g11
S'http://farm3.staticflickr.com/2181/2106382580_d8e7996d8b_q.jpg'
p2337
sg13
S'2106382580'
p2338
sa(dp2339
g11
S'http://farm4.staticflickr.com/3657/3416775001_ef5034a23b_q.jpg'
p2340
sg13
S'3416775001'
p2341
sa(dp2342
g11
S'http://farm3.staticflickr.com/2254/2452951141_3c808799df_q.jpg'
p2343
sg13
S'2452951141'
p2344
sa(dp2345
g11
S'http://farm2.staticflickr.com/1438/1483994006_ce42fa5932_q.jpg'
p2346
sg13
S'1483994006'
p2347
sa(dp2348
g11
S'http://farm4.staticflickr.com/3078/2723280142_bb7c192bbc_q.jpg'
p2349
sg13
S'2723280142'
p2350
sa(dp2351
g11
S'http://farm2.staticflickr.com/1432/641200639_41df3f343c_q.jpg'
p2352
sg13
S'641200639'
p2353
sa(dp2354
g11
S'http://farm4.staticflickr.com/3583/3297215476_58da42e0a5_q.jpg'
p2355
sg13
S'3297215476'
p2356
sa(dp2357
g11
S'http://farm4.staticflickr.com/3005/2923379847_394e9989d4_q.jpg'
p2358
sg13
S'2923379847'
p2359
sas(S'Canon EOS 20D'
g4
(g6
S'H\xea\x13L4q\x88?'
tRp2360
tp2361
(lp2362
(dp2363
g11
S'http://farm4.staticflickr.com/3396/3551933175_9bbc7dc856_q.jpg'
p2364
sg13
S'3551933175'
p2365
sa(dp2366
g11
S'http://farm4.staticflickr.com/3349/3259318314_e25c25092e_q.jpg'
p2367
sg13
S'3259318314'
p2368
sa(dp2369
g11
S'http://farm4.staticflickr.com/3337/3327092860_1b37e25068_q.jpg'
p2370
sg13
S'3327092860'
p2371
sa(dp2372
g11
S'http://farm2.staticflickr.com/1057/720377304_c844e737c8_q.jpg'
p2373
sg13
S'720377304'
p2374
sa(dp2375
g11
S'http://farm1.staticflickr.com/30/99543166_784ad98690_q.jpg'
p2376
sg13
S'99543166'
p2377
sa(dp2378
g11
S'http://farm4.staticflickr.com/3017/2692379236_da8db38f2c_q.jpg'
p2379
sg13
S'2692379236'
p2380
sa(dp2381
g11
S'http://farm2.staticflickr.com/1283/671809620_b84777404d_q.jpg'
p2382
sg13
S'671809620'
p2383
sa(dp2384
g11
S'http://farm4.staticflickr.com/3554/3388575954_b98f9b40fa_q.jpg'
p2385
sg13
S'3388575954'
p2386
sa(dp2387
g11
S'http://farm4.staticflickr.com/3495/3295608487_b6ab0c6a08_q.jpg'
p2388
sg13
S'3295608487'
p2389
sa(dp2390
g11
S'http://farm3.staticflickr.com/2597/3704973257_3d817b5a48_q.jpg'
p2391
sg13
S'3704973257'
p2392
sas(S'Canon EOS 5D Mark II'
g4
(g6
S'\xa3D\xbf\xe6\xc54\x9f?'
tRp2393
tp2394
(lp2395
(dp2396
g11
S'http://farm3.staticflickr.com/2692/4554813852_9fdd3e4079_q.jpg'
p2397
sg13
S'4554813852'
p2398
sa(dp2399
g11
S'http://farm6.staticflickr.com/5009/5204997413_89008e51b2_q.jpg'
p2400
sg13
S'5204997413'
p2401
sa(dp2402
g11
S'http://farm5.staticflickr.com/4095/4830102485_547053b4b9_q.jpg'
p2403
sg13
S'4830102485'
p2404
sa(dp2405
g11
S'http://farm6.staticflickr.com/5167/5246198799_04aab1857b_q.jpg'
p2406
sg13
S'5246198799'
p2407
sa(dp2408
g11
S'http://farm6.staticflickr.com/5009/5284138807_cb5d5d8380_q.jpg'
p2409
sg13
S'5284138807'
p2410
sa(dp2411
g11
S'http://farm5.staticflickr.com/4092/5061601785_509980e76f_q.jpg'
p2412
sg13
S'5061601785'
p2413
sa(dp2414
g11
S'http://farm3.staticflickr.com/2600/4063439633_d48c71598c_q.jpg'
p2415
sg13
S'4063439633'
p2416
sa(dp2417
g11
S'http://farm6.staticflickr.com/5059/5403904111_e0ac8fc707_q.jpg'
p2418
sg13
S'5403904111'
p2419
sa(dp2420
g11
S'http://farm5.staticflickr.com/4139/4764725086_8e9a718df4_q.jpg'
p2421
sg13
S'4764725086'
p2422
sa(dp2423
g11
S'http://farm3.staticflickr.com/2765/4410056537_3776f3a46e_q.jpg'
p2424
sg13
S'4410056537'
p2425
sas(S'Canon EOS D30'
g4
(g6
S'j\no\x81\xc9\xe0\x80?'
tRp2426
tp2427
(lp2428
(dp2429
g11
S'http://farm1.staticflickr.com/42/91957795_5a27611762_q.jpg'
p2430
sg13
S'91957795'
p2431
sassS'architecture'
p2432
(dp2433
(S'Canon EOS 50D'
g4
(g6
S'X6Y\x90\x8aj\x8d?'
tRp2434
tp2435
(lp2436
(dp2437
g11
S'http://farm6.staticflickr.com/5150/5652814327_e9e3582057_q.jpg'
p2438
sg13
S'5652814327'
p2439
sa(dp2440
g11
S'http://farm4.staticflickr.com/3441/3991947525_d6e8931b0e_q.jpg'
p2441
sg13
S'3991947525'
p2442
sa(dp2443
g11
S'http://farm6.staticflickr.com/5282/5260067001_9a19b07b38_q.jpg'
p2444
sg13
S'5260067001'
p2445
sa(dp2446
g11
S'http://farm6.staticflickr.com/5085/5323011079_074615ae81_q.jpg'
p2447
sg13
S'5323011079'
p2448
sa(dp2449
g11
S'http://farm5.staticflickr.com/4123/4940977439_6a6319e7ac_q.jpg'
p2450
sg13
S'4940977439'
p2451
sa(dp2452
g11
S'http://farm5.staticflickr.com/4097/4860203157_5c6a8c356c_q.jpg'
p2453
sg13
S'4860203157'
p2454
sa(dp2455
g11
S'http://farm3.staticflickr.com/2624/4046320876_17d0ee4a18_q.jpg'
p2456
sg13
S'4046320876'
p2457
sa(dp2458
g11
S'http://farm4.staticflickr.com/3309/3629349738_1cf509e902_q.jpg'
p2459
sg13
S'3629349738'
p2460
sa(dp2461
g11
S'http://farm6.staticflickr.com/5050/5230843401_f24b4a7161_q.jpg'
p2462
sg13
S'5230843401'
p2463
sa(dp2464
g11
S'http://farm3.staticflickr.com/2598/4082024567_22e0829889_q.jpg'
p2465
sg13
S'4082024567'
p2466
sas(S'Nikon D90'
g4
(g6
S'\xfc\xb0\x90\xc0\xe1\xb0\x89?'
tRp2467
tp2468
(lp2469
(dp2470
g11
S'http://farm5.staticflickr.com/4023/4677489081_b704262065_q.jpg'
p2471
sg13
S'4677489081'
p2472
sa(dp2473
g11
S'http://farm7.staticflickr.com/6184/6039996683_b1959bc10d_q.jpg'
p2474
sg13
S'6039996683'
p2475
sa(dp2476
g11
S'http://farm5.staticflickr.com/4147/5222837199_4dfb05713f_q.jpg'
p2477
sg13
S'5222837199'
p2478
sa(dp2479
g11
S'http://farm6.staticflickr.com/5069/5549675610_450ec6489a_q.jpg'
p2480
sg13
S'5549675610'
p2481
sa(dp2482
g11
S'http://farm5.staticflickr.com/4032/4686605893_8d8eb1b944_q.jpg'
p2483
sg13
S'4686605893'
p2484
sa(dp2485
g11
S'http://farm2.staticflickr.com/1428/4608613719_b24a0e7cab_q.jpg'
p2486
sg13
S'4608613719'
p2487
sa(dp2488
g11
S'http://farm3.staticflickr.com/2520/4149868983_23da1bd580_q.jpg'
p2489
sg13
S'4149868983'
p2490
sa(dp2491
g11
S'http://farm6.staticflickr.com/5258/5438326648_dc2223a181_q.jpg'
p2492
sg13
S'5438326648'
p2493
sa(dp2494
g11
S'http://farm6.staticflickr.com/5133/5480601290_a4a8ccab0a_q.jpg'
p2495
sg13
S'5480601290'
p2496
sa(dp2497
g11
S'http://farm7.staticflickr.com/6121/5930721220_a2131f6c7a_q.jpg'
p2498
sg13
S'5930721220'
p2499
sas(S'Nikon D80'
g4
(g6
S'\xed5v~\xfa\xd4\x82?'
tRp2500
tp2501
(lp2502
(dp2503
g11
S'http://farm4.staticflickr.com/3531/3460735584_86f38a48cf_q.jpg'
p2504
sg13
S'3460735584'
p2505
sa(dp2506
g11
S'http://farm3.staticflickr.com/2058/2075858881_ac9153eace_q.jpg'
p2507
sg13
S'2075858881'
p2508
sa(dp2509
g11
S'http://farm4.staticflickr.com/3369/3624337047_0acbcd3212_q.jpg'
p2510
sg13
S'3624337047'
p2511
sa(dp2512
g11
S'http://farm4.staticflickr.com/3480/3274440076_caace6849a_q.jpg'
p2513
sg13
S'3274440076'
p2514
sa(dp2515
g11
S'http://farm2.staticflickr.com/1397/5180874177_6a19f03051_q.jpg'
p2516
sg13
S'5180874177'
p2517
sa(dp2518
g11
S'http://farm2.staticflickr.com/1004/3170930667_e0e3fe743b_q.jpg'
p2519
sg13
S'3170930667'
p2520
sa(dp2521
g11
S'http://farm4.staticflickr.com/3639/3379370408_763467bf18_q.jpg'
p2522
sg13
S'3379370408'
p2523
sa(dp2524
g11
S'http://farm4.staticflickr.com/3354/3201849413_d34c96189e_q.jpg'
p2525
sg13
S'3201849413'
p2526
sa(dp2527
g11
S'http://farm5.staticflickr.com/4038/4580501158_6e253eb13e_q.jpg'
p2528
sg13
S'4580501158'
p2529
sa(dp2530
g11
S'http://farm4.staticflickr.com/3235/3104475168_e4050ba4d4_q.jpg'
p2531
sg13
S'3104475168'
p2532
sas(S'Nikon D70s'
g4
(g6
S'\xa8\x9b\x10\x1d\x92\x87{?'
tRp2533
tp2534
(lp2535
(dp2536
g11
S'http://farm4.staticflickr.com/3650/3637075385_2c58bfbc5b_q.jpg'
p2537
sg13
S'3637075385'
p2538
sa(dp2539
g11
S'http://farm5.staticflickr.com/4071/4519815148_1c41ac8809_q.jpg'
p2540
sg13
S'4519815148'
p2541
sa(dp2542
g11
S'http://farm3.staticflickr.com/2572/3994079347_b773c93899_q.jpg'
p2543
sg13
S'3994079347'
p2544
sa(dp2545
g11
S'http://farm5.staticflickr.com/4045/4620269512_2990c49472_q.jpg'
p2546
sg13
S'4620269512'
p2547
sas(S'Samsung NX10'
g4
(g6
S'\xbet\xcc\x95\xad\xa5\x84?'
tRp2548
tp2549
(lp2550
(dp2551
g11
S'http://farm8.staticflickr.com/7204/6937667885_f69670ab80_q.jpg'
p2552
sg13
S'6937667885'
p2553
sa(dp2554
g11
S'http://farm6.staticflickr.com/5257/5431367427_b5f4afcc92_q.jpg'
p2555
sg13
S'5431367427'
p2556
sa(dp2557
g11
S'http://farm6.staticflickr.com/5284/5361582676_792e7a6d61_q.jpg'
p2558
sg13
S'5361582676'
p2559
sa(dp2560
g11
S'http://farm6.staticflickr.com/5245/5375318069_72c97ce82b_q.jpg'
p2561
sg13
S'5375318069'
p2562
sas(S'Canon PowerShot A610'
g4
(g6
S'\xddB\x87\xa6`\xd2y?'
tRp2563
tp2564
(lp2565
(dp2566
g11
S'http://farm4.staticflickr.com/3104/2679404219_680d80c9e8_q.jpg'
p2567
sg13
S'2679404219'
p2568
sa(dp2569
g11
S'http://farm4.staticflickr.com/3168/3012575580_cf3f37d110_q.jpg'
p2570
sg13
S'3012575580'
p2571
sa(dp2572
g11
S'http://farm4.staticflickr.com/3142/3069869055_557bfb2004_q.jpg'
p2573
sg13
S'3069869055'
p2574
sa(dp2575
g11
S'http://farm3.staticflickr.com/2508/3720353467_c28d4ec140_q.jpg'
p2576
sg13
S'3720353467'
p2577
sa(dp2578
g11
S'http://farm4.staticflickr.com/3546/3450663646_6fcdcebdca_q.jpg'
p2579
sg13
S'3450663646'
p2580
sa(dp2581
g11
S'http://farm4.staticflickr.com/3290/3125049087_038267b279_q.jpg'
p2582
sg13
S'3125049087'
p2583
sa(dp2584
g11
S'http://farm4.staticflickr.com/3093/2616624476_9f064d8114_q.jpg'
p2585
sg13
S'2616624476'
p2586
sa(dp2587
g11
S'http://farm5.staticflickr.com/4072/4714779148_0c25cc52f0_q.jpg'
p2588
sg13
S'4714779148'
p2589
sa(dp2590
g11
S'http://farm5.staticflickr.com/4100/4826856491_a05ded79dd_q.jpg'
p2591
sg13
S'4826856491'
p2592
sa(dp2593
g11
S'http://farm4.staticflickr.com/3115/2637833061_237e142d66_q.jpg'
p2594
sg13
S'2637833061'
p2595
sas(S'Canon EOS 5D Mark II'
g4
(g6
S'\x7f\xf1Z\x87\x90c\xa4?'
tRp2596
tp2597
(lp2598
(dp2599
g11
S'http://farm8.staticflickr.com/7161/6792493019_bd47a72c98_q.jpg'
p2600
sg13
S'6792493019'
p2601
sa(dp2602
g11
S'http://farm4.staticflickr.com/3300/3551510533_a2f94475c6_q.jpg'
p2603
sg13
S'3551510533'
p2604
sa(dp2605
g11
S'http://farm5.staticflickr.com/4002/4670017326_33f6ca5da2_q.jpg'
p2606
sg13
S'4670017326'
p2607
sa(dp2608
g11
S'http://farm5.staticflickr.com/4071/4316918957_08195a87da_q.jpg'
p2609
sg13
S'4316918957'
p2610
sa(dp2611
g11
S'http://farm6.staticflickr.com/5187/5863114381_53b95aeaae_q.jpg'
p2612
sg13
S'5863114381'
p2613
sa(dp2614
g11
S'http://farm3.staticflickr.com/2492/3741184301_bb49eb8e63_q.jpg'
p2615
sg13
S'3741184301'
p2616
sa(dp2617
g11
S'http://farm7.staticflickr.com/6222/6227471705_3a3a8f4163_q.jpg'
p2618
sg13
S'6227471705'
p2619
sa(dp2620
g11
S'http://farm3.staticflickr.com/2490/3864322393_496e6db414_q.jpg'
p2621
sg13
S'3864322393'
p2622
sa(dp2623
g11
S'http://farm5.staticflickr.com/4016/4290604971_5f8c79d369_q.jpg'
p2624
sg13
S'4290604971'
p2625
sa(dp2626
g11
S'http://farm8.staticflickr.com/7208/6967423963_81bd6d3fcf_q.jpg'
p2627
sg13
S'6967423963'
p2628
sas(S'Canon EOS 5D'
g4
(g6
S'\xcfR9\x175\x13\x92?'
tRp2629
tp2630
(lp2631
(dp2632
g11
S'http://farm1.staticflickr.com/230/497851367_c5e4ac7470_q.jpg'
p2633
sg13
S'497851367'
p2634
sa(dp2635
g11
S'http://farm1.staticflickr.com/50/130601225_6a6690103f_q.jpg'
p2636
sg13
S'130601225'
p2637
sa(dp2638
g11
S'http://farm4.staticflickr.com/3005/2969769911_6cbcc66cdf_q.jpg'
p2639
sg13
S'2969769911'
p2640
sa(dp2641
g11
S'http://farm3.staticflickr.com/2650/4048257256_8447019fd3_q.jpg'
p2642
sg13
S'4048257256'
p2643
sa(dp2644
g11
S'http://farm5.staticflickr.com/4119/4802048642_791ee9c494_q.jpg'
p2645
sg13
S'4802048642'
p2646
sa(dp2647
g11
S'http://farm4.staticflickr.com/3142/2784224532_695072f78d_q.jpg'
p2648
sg13
S'2784224532'
p2649
sa(dp2650
g11
S'http://farm4.staticflickr.com/3478/4063735883_60e99b1d9a_q.jpg'
p2651
sg13
S'4063735883'
p2652
sa(dp2653
g11
S'http://farm3.staticflickr.com/2125/4514268776_1cee6b4efc_q.jpg'
p2654
sg13
S'4514268776'
p2655
sa(dp2656
g11
S'http://farm3.staticflickr.com/2731/4100874099_3dcde0cee1_q.jpg'
p2657
sg13
S'4100874099'
p2658
sa(dp2659
g11
S'http://farm4.staticflickr.com/3563/3467448351_53c3ecd14d_q.jpg'
p2660
sg13
S'3467448351'
p2661
sas(S'Nikon D300'
g4
(g6
S'\x97:;%\x153\x86?'
tRp2662
tp2663
(lp2664
(dp2665
g11
S'http://farm6.staticflickr.com/5323/7222284384_10d64ab3c2_q.jpg'
p2666
sg13
S'7222284384'
p2667
sa(dp2668
g11
S'http://farm4.staticflickr.com/3211/2907154127_277e485368_q.jpg'
p2669
sg13
S'2907154127'
p2670
sa(dp2671
g11
S'http://farm6.staticflickr.com/5061/5584613304_841ae30681_q.jpg'
p2672
sg13
S'5584613304'
p2673
sa(dp2674
g11
S'http://farm6.staticflickr.com/5127/5211634203_15e920fd19_q.jpg'
p2675
sg13
S'5211634203'
p2676
sa(dp2677
g11
S'http://farm3.staticflickr.com/2335/2363635002_9a79f284c8_q.jpg'
p2678
sg13
S'2363635002'
p2679
sa(dp2680
g11
S'http://farm4.staticflickr.com/3033/2736143814_e6ba364c03_q.jpg'
p2681
sg13
S'2736143814'
p2682
sa(dp2683
g11
S'http://farm4.staticflickr.com/3563/3281086048_f31d611f50_q.jpg'
p2684
sg13
S'3281086048'
p2685
sa(dp2686
g11
S'http://farm4.staticflickr.com/3297/3517963338_bdde241eb2_q.jpg'
p2687
sg13
S'3517963338'
p2688
sa(dp2689
g11
S'http://farm3.staticflickr.com/2630/4084739535_a2ee5d92d0_q.jpg'
p2690
sg13
S'4084739535'
p2691
sa(dp2692
g11
S'http://farm8.staticflickr.com/7070/6823753940_67cc8e748b_q.jpg'
p2693
sg13
S'6823753940'
p2694
sas(S'Nikon D700'
g4
(g6
S'tG\xab_\xa7`\xae?'
tRp2695
tp2696
(lp2697
(dp2698
g11
S'http://farm3.staticflickr.com/2621/3998074824_98e1420179_q.jpg'
p2699
sg13
S'3998074824'
p2700
sa(dp2701
g11
S'http://farm2.staticflickr.com/1103/4733396802_4d501d29ae_q.jpg'
p2702
sg13
S'4733396802'
p2703
sa(dp2704
g11
S'http://farm5.staticflickr.com/4116/4882097239_d9e30a2c48_q.jpg'
p2705
sg13
S'4882097239'
p2706
sa(dp2707
g11
S'http://farm8.staticflickr.com/7093/7190272344_a10e3e36f3_q.jpg'
p2708
sg13
S'7190272344'
p2709
sa(dp2710
g11
S'http://farm8.staticflickr.com/7234/6937148458_1bc5fd9f96_q.jpg'
p2711
sg13
S'6937148458'
p2712
sa(dp2713
g11
S'http://farm7.staticflickr.com/6011/6002077164_a04f7cd338_q.jpg'
p2714
sg13
S'6002077164'
p2715
sa(dp2716
g11
S'http://farm9.staticflickr.com/8322/8032195208_a366cf6a63_q.jpg'
p2717
sg13
S'8032195208'
p2718
sa(dp2719
g11
S'http://farm9.staticflickr.com/8159/7160373991_9d6716105b_q.jpg'
p2720
sg13
S'7160373991'
p2721
sa(dp2722
g11
S'http://farm9.staticflickr.com/8034/7954142188_28e492009d_q.jpg'
p2723
sg13
S'7954142188'
p2724
sa(dp2725
g11
S'http://farm4.staticflickr.com/3125/3141819296_02389245c5_q.jpg'
p2726
sg13
S'3141819296'
p2727
sassS'technology'
p2728
(dp2729
(S'Canon EOS 50D'
g4
(g6
S'\\\x18\xc4n\xa1]|?'
tRp2730
tp2731
(lp2732
(dp2733
g11
S'http://farm5.staticflickr.com/4052/4379541742_604baf0eff_q.jpg'
p2734
sg13
S'4379541742'
p2735
sa(dp2736
g11
S'http://farm8.staticflickr.com/7175/6689961179_3305b55f87_q.jpg'
p2737
sg13
S'6689961179'
p2738
sa(dp2739
g11
S'http://farm2.staticflickr.com/1432/5104204268_44a6121f32_q.jpg'
p2740
sg13
S'5104204268'
p2741
sa(dp2742
g11
S'http://farm9.staticflickr.com/8436/7997263468_3df4485238_q.jpg'
p2743
sg13
S'7997263468'
p2744
sa(dp2745
g11
S'http://farm6.staticflickr.com/5140/5400748226_4e5c1ebc50_q.jpg'
p2746
sg13
S'5400748226'
p2747
sa(dp2748
g11
S'http://farm3.staticflickr.com/2612/4196213517_ab18158646_q.jpg'
p2749
sg13
S'4196213517'
p2750
sa(dp2751
g11
S'http://farm5.staticflickr.com/4024/4547044744_5dfaef89fe_q.jpg'
p2752
sg13
S'4547044744'
p2753
sa(dp2754
g11
S'http://farm3.staticflickr.com/2517/4177970851_b3025b184c_q.jpg'
p2755
sg13
S'4177970851'
p2756
sa(dp2757
g11
S'http://farm6.staticflickr.com/5221/5573642693_3e3aa01dd4_q.jpg'
p2758
sg13
S'5573642693'
p2759
sas(S'Nikon D90'
g4
(g6
S'\xe7\x80\xc2\x0e\xeb|\x90?'
tRp2760
tp2761
(lp2762
(dp2763
g11
S'http://farm5.staticflickr.com/4078/4746328734_ee3a55687b_q.jpg'
p2764
sg13
S'4746328734'
p2765
sa(dp2766
g11
S'http://farm8.staticflickr.com/7265/6988620352_4b7729b6c4_q.jpg'
p2767
sg13
S'6988620352'
p2768
sa(dp2769
g11
S'http://farm3.staticflickr.com/2611/4029063327_479a2d43ce_q.jpg'
p2770
sg13
S'4029063327'
p2771
sa(dp2772
g11
S'http://farm9.staticflickr.com/8329/8447100229_2e617aa77f_q.jpg'
p2773
sg13
S'8447100229'
p2774
sa(dp2775
g11
S'http://farm5.staticflickr.com/4037/4310691752_bfeb7ef764_q.jpg'
p2776
sg13
S'4310691752'
p2777
sa(dp2778
g11
S'http://farm6.staticflickr.com/5454/7419574462_220bc56709_q.jpg'
p2779
sg13
S'7419574462'
p2780
sa(dp2781
g11
S'http://farm9.staticflickr.com/8174/8043351101_036b1ef292_q.jpg'
p2782
sg13
S'8043351101'
p2783
sa(dp2784
g11
S'http://farm5.staticflickr.com/4101/4754659093_6811babd47_q.jpg'
p2785
sg13
S'4754659093'
p2786
sa(dp2787
g11
S'http://farm5.staticflickr.com/4003/4304919448_cfc2be6c33_q.jpg'
p2788
sg13
S'4304919448'
p2789
sa(dp2790
g11
S'http://farm5.staticflickr.com/4142/4743538808_afe8cfb1fb_q.jpg'
p2791
sg13
S'4743538808'
p2792
sas(S'Canon EOS 20D'
g4
(g6
S'\x95\xdf\x19\x17\x8a-|?'
tRp2793
tp2794
(lp2795
(dp2796
g11
S'http://farm1.staticflickr.com/166/424344637_ed37869cd9_q.jpg'
p2797
sg13
S'424344637'
p2798
sa(dp2799
g11
S'http://farm4.staticflickr.com/3156/2505356964_471732e7a0_q.jpg'
p2800
sg13
S'2505356964'
p2801
sa(dp2802
g11
S'http://farm1.staticflickr.com/36/113083139_6176b1c93f_q.jpg'
p2803
sg13
S'113083139'
p2804
sa(dp2805
g11
S'http://farm1.staticflickr.com/89/254179216_f3e18bd3c5_q.jpg'
p2806
sg13
S'254179216'
p2807
sa(dp2808
g11
S'http://farm2.staticflickr.com/1359/4730216931_10efe580aa_q.jpg'
p2809
sg13
S'4730216931'
p2810
sa(dp2811
g11
S'http://farm3.staticflickr.com/2299/2077042517_7d7fa3829d_q.jpg'
p2812
sg13
S'2077042517'
p2813
sa(dp2814
g11
S'http://farm1.staticflickr.com/24/50792564_1f90b9511f_q.jpg'
p2815
sg13
S'50792564'
p2816
sa(dp2817
g11
S'http://farm4.staticflickr.com/3199/2513619516_3d8d9bf09c_q.jpg'
p2818
sg13
S'2513619516'
p2819
sa(dp2820
g11
S'http://farm1.staticflickr.com/21/34708904_96f530d2e1_q.jpg'
p2821
sg13
S'34708904'
p2822
sa(dp2823
g11
S'http://farm1.staticflickr.com/24/102477019_57c5df253b_q.jpg'
p2824
sg13
S'102477019'
p2825
sas(S'Nikon D700'
g4
(g6
S'W\xeb\x06\xe9\x89\xe0|?'
tRp2826
tp2827
(lp2828
(dp2829
g11
S'http://farm7.staticflickr.com/6039/6391481409_f63b3d6200_q.jpg'
p2830
sg13
S'6391481409'
p2831
sa(dp2832
g11
S'http://farm7.staticflickr.com/6065/6076187637_8f6bc4a658_q.jpg'
p2833
sg13
S'6076187637'
p2834
sa(dp2835
g11
S'http://farm9.staticflickr.com/8221/8376817963_1176af016b_q.jpg'
p2836
sg13
S'8376817963'
p2837
sa(dp2838
g11
S'http://farm9.staticflickr.com/8220/8382546736_a06f6c91bf_q.jpg'
p2839
sg13
S'8382546736'
p2840
sa(dp2841
g11
S'http://farm8.staticflickr.com/7144/6594115171_dd719c4fb4_q.jpg'
p2842
sg13
S'6594115171'
p2843
sa(dp2844
g11
S'http://farm7.staticflickr.com/6058/6321258740_38512726a5_q.jpg'
p2845
sg13
S'6321258740'
p2846
sa(dp2847
g11
S'http://farm5.staticflickr.com/4073/4818053786_95700f9369_q.jpg'
p2848
sg13
S'4818053786'
p2849
sa(dp2850
g11
S'http://farm5.staticflickr.com/4063/4681452141_28c52662c5_q.jpg'
p2851
sg13
S'4681452141'
p2852
sa(dp2853
g11
S'http://farm4.staticflickr.com/3047/3101610876_a573ae5087_q.jpg'
p2854
sg13
S'3101610876'
p2855
sa(dp2856
g11
S'http://farm8.staticflickr.com/7053/7109932365_367e49f6cb_q.jpg'
p2857
sg13
S'7109932365'
p2858
sas(S'Samsung NX10'
g4
(g6
S'$]\x98]\x17\xa1\x93?'
tRp2859
tp2860
(lp2861
(dp2862
g11
S'http://farm2.staticflickr.com/1298/5188694473_c9670571d7_q.jpg'
p2863
sg13
S'5188694473'
p2864
sa(dp2865
g11
S'http://farm6.staticflickr.com/5055/5571533600_dfabd43d19_q.jpg'
p2866
sg13
S'5571533600'
p2867
sa(dp2868
g11
S'http://farm7.staticflickr.com/6038/6344533890_630a1dc9e7_q.jpg'
p2869
sg13
S'6344533890'
p2870
sa(dp2871
g11
S'http://farm6.staticflickr.com/5245/5375318069_72c97ce82b_q.jpg'
p2872
sg13
S'5375318069'
p2873
sa(dp2874
g11
S'http://farm5.staticflickr.com/4132/5187664239_a3ac902455_q.jpg'
p2875
sg13
S'5187664239'
p2876
sa(dp2877
g11
S'http://farm5.staticflickr.com/4085/5188049459_a7d34f021d_q.jpg'
p2878
sg13
S'5188049459'
p2879
sas(S'Canon PowerShot A610'
g4
(g6
S'b\x17C\x95\xa1\xd4\x7f?'
tRp2880
tp2881
(lp2882
(dp2883
g11
S'http://farm1.staticflickr.com/178/408167399_2ed8555174_q.jpg'
p2884
sg13
S'408167399'
p2885
sa(dp2886
g11
S'http://farm9.staticflickr.com/8174/7987625741_dcfb01cdbe_q.jpg'
p2887
sg13
S'7987625741'
p2888
sas(S'Canon EOS 40D'
g4
(g6
S'\xe6\xae\x90\x7f2\xd5\x82?'
tRp2889
tp2890
(lp2891
(dp2892
g11
S'http://farm4.staticflickr.com/3459/3862567972_9ee6c82855_q.jpg'
p2893
sg13
S'3862567972'
p2894
sa(dp2895
g11
S'http://farm4.staticflickr.com/3046/2829381653_b519f9c3b0_q.jpg'
p2896
sg13
S'2829381653'
p2897
sa(dp2898
g11
S'http://farm7.staticflickr.com/6048/6246688704_5f768b78b9_q.jpg'
p2899
sg13
S'6246688704'
p2900
sa(dp2901
g11
S'http://farm9.staticflickr.com/8472/8123509813_2e5c8c30d0_q.jpg'
p2902
sg13
S'8123509813'
p2903
sa(dp2904
g11
S'http://farm3.staticflickr.com/2577/4057225035_30d2e48ec6_q.jpg'
p2905
sg13
S'4057225035'
p2906
sa(dp2907
g11
S'http://farm8.staticflickr.com/7088/7231297984_f77b55007a_q.jpg'
p2908
sg13
S'7231297984'
p2909
sa(dp2910
g11
S'http://farm6.staticflickr.com/5032/5851802015_108cb55273_q.jpg'
p2911
sg13
S'5851802015'
p2912
sa(dp2913
g11
S'http://farm2.staticflickr.com/1332/4727097556_5d6ae1f7cc_q.jpg'
p2914
sg13
S'4727097556'
p2915
sa(dp2916
g11
S'http://farm9.staticflickr.com/8187/8113817723_041576a6c3_q.jpg'
p2917
sg13
S'8113817723'
p2918
sa(dp2919
g11
S'http://farm3.staticflickr.com/2483/5775391149_0bbe8beaf3_q.jpg'
p2920
sg13
S'5775391149'
p2921
sas(S'Nikon D200'
g4
(g6
S'\x86a1\xe5\xcb\xb1}?'
tRp2922
tp2923
(lp2924
(dp2925
g11
S'http://farm1.staticflickr.com/132/398982678_ed3e34b300_q.jpg'
p2926
sg13
S'398982678'
p2927
sa(dp2928
g11
S'http://farm3.staticflickr.com/2251/1802440919_ee339b4c49_q.jpg'
p2929
sg13
S'1802440919'
p2930
sa(dp2931
g11
S'http://farm1.staticflickr.com/122/308737777_0829b0b96a_q.jpg'
p2932
sg13
S'308737777'
p2933
sa(dp2934
g11
S'http://farm6.staticflickr.com/5105/5616392919_9c60ea542c_q.jpg'
p2935
sg13
S'5616392919'
p2936
sa(dp2937
g11
S'http://farm2.staticflickr.com/1204/1409428084_19263e805d_q.jpg'
p2938
sg13
S'1409428084'
p2939
sa(dp2940
g11
S'http://farm3.staticflickr.com/2183/2242496143_9e02e42697_q.jpg'
p2941
sg13
S'2242496143'
p2942
sa(dp2943
g11
S'http://farm4.staticflickr.com/3572/3858481174_b52a1fc1ae_q.jpg'
p2944
sg13
S'3858481174'
p2945
sa(dp2946
g11
S'http://farm8.staticflickr.com/7083/7044286789_be97cdd78c_q.jpg'
p2947
sg13
S'7044286789'
p2948
sas(S'Canon EOS 5D Mark II'
g4
(g6
S'\r\xae\xb8\xa4\xa4?\xa2?'
tRp2949
tp2950
(lp2951
(dp2952
g11
S'http://farm3.staticflickr.com/2520/3858651584_eddd31e019_q.jpg'
p2953
sg13
S'3858651584'
p2954
sa(dp2955
g11
S'http://farm6.staticflickr.com/5148/5640350481_f07be8051b_q.jpg'
p2956
sg13
S'5640350481'
p2957
sa(dp2958
g11
S'http://farm9.staticflickr.com/8369/8513237804_68912d9a01_q.jpg'
p2959
sg13
S'8513237804'
p2960
sa(dp2961
g11
S'http://farm8.staticflickr.com/7184/6888244073_5e579cff0d_q.jpg'
p2962
sg13
S'6888244073'
p2963
sa(dp2964
g11
S'http://farm3.staticflickr.com/2792/4178715310_837a62bc3e_q.jpg'
p2965
sg13
S'4178715310'
p2966
sa(dp2967
g11
S'http://farm4.staticflickr.com/3535/3943404741_c55d42d7dc_q.jpg'
p2968
sg13
S'3943404741'
p2969
sa(dp2970
g11
S'http://farm3.staticflickr.com/2684/4212637944_c93c1b01c1_q.jpg'
p2971
sg13
S'4212637944'
p2972
sa(dp2973
g11
S'http://farm8.staticflickr.com/7039/6927599687_2195d057ee_q.jpg'
p2974
sg13
S'6927599687'
p2975
sa(dp2976
g11
S'http://farm8.staticflickr.com/7018/6465774817_61f7469493_q.jpg'
p2977
sg13
S'6465774817'
p2978
sa(dp2979
g11
S'http://farm2.staticflickr.com/1427/5107396955_57896d0cda_q.jpg'
p2980
sg13
S'5107396955'
p2981
sas(S'Nikon D3X'
g4
(g6
S'\xe3^\x9c\xa0\xc4\xb4\x88?'
tRp2982
tp2983
(lp2984
(dp2985
g11
S'http://farm5.staticflickr.com/4118/4918798618_0be8405d4e_q.jpg'
p2986
sg13
S'4918798618'
p2987
sa(dp2988
g11
S'http://farm4.staticflickr.com/3573/5699183849_34e80fb506_q.jpg'
p2989
sg13
S'5699183849'
p2990
sa(dp2991
g11
S'http://farm3.staticflickr.com/2564/4077315602_d0eb5ffde4_q.jpg'
p2992
sg13
S'4077315602'
p2993
sa(dp2994
g11
S'http://farm4.staticflickr.com/3308/3232133635_93aee2f4f6_q.jpg'
p2995
sg13
S'3232133635'
p2996
sa(dp2997
g11
S'http://farm5.staticflickr.com/4118/4921849287_c14f0aa6b4_q.jpg'
p2998
sg13
S'4921849287'
p2999
sa(dp3000
g11
S'http://farm5.staticflickr.com/4059/5147091048_dc34e0bf50_q.jpg'
p3001
sg13
S'5147091048'
p3002
sa(dp3003
g11
S'http://farm6.staticflickr.com/5275/5914448597_8690af9692_q.jpg'
p3004
sg13
S'5914448597'
p3005
sa(dp3006
g11
S'http://farm3.staticflickr.com/2403/5811328622_51ec6b62e8_q.jpg'
p3007
sg13
S'5811328622'
p3008
sa(dp3009
g11
S'http://farm3.staticflickr.com/2635/4045813826_aa5f743df6_q.jpg'
p3010
sg13
S'4045813826'
p3011
sa(dp3012
g11
S'http://farm7.staticflickr.com/6093/6350750431_1f87713423_q.jpg'
p3013
sg13
S'6350750431'
p3014
sassS'landscape'
p3015
(dp3016
(S'Nikon D7000'
g4
(g6
S"\xebg\xe2\r\xb1'\x96?"
tRp3017
tp3018
(lp3019
(dp3020
g11
S'http://farm6.staticflickr.com/5304/5868379843_b324e801db_q.jpg'
p3021
sg13
S'5868379843'
p3022
sa(dp3023
g11
S'http://farm8.staticflickr.com/7270/6929704538_9deeb5ca2a_q.jpg'
p3024
sg13
S'6929704538'
p3025
sa(dp3026
g11
S'http://farm8.staticflickr.com/7076/7175592711_13123f75ce_q.jpg'
p3027
sg13
S'7175592711'
p3028
sa(dp3029
g11
S'http://farm8.staticflickr.com/7157/6485691681_bd23a14457_q.jpg'
p3030
sg13
S'6485691681'
p3031
sa(dp3032
g11
S'http://farm7.staticflickr.com/6081/6096924690_baf01f9079_q.jpg'
p3033
sg13
S'6096924690'
p3034
sa(dp3035
g11
S'http://farm7.staticflickr.com/6197/6105682832_433bf7b8bb_q.jpg'
p3036
sg13
S'6105682832'
p3037
sa(dp3038
g11
S'http://farm8.staticflickr.com/7016/6734851149_244e778783_q.jpg'
p3039
sg13
S'6734851149'
p3040
sa(dp3041
g11
S'http://farm8.staticflickr.com/7207/6855408549_ee58fa7c00_q.jpg'
p3042
sg13
S'6855408549'
p3043
sa(dp3044
g11
S'http://farm9.staticflickr.com/8503/8394691990_4e1cd8611f_q.jpg'
p3045
sg13
S'8394691990'
p3046
sa(dp3047
g11
S'http://farm4.staticflickr.com/3539/5787351070_cf60f8b5cf_q.jpg'
p3048
sg13
S'5787351070'
p3049
sas(S'Canon PowerShot G11'
g4
(g6
S'\xd4\xf1J\x82\xba\xb1\x87?'
tRp3050
tp3051
(lp3052
(dp3053
g11
S'http://farm8.staticflickr.com/7280/8151226429_8743c8f386_q.jpg'
p3054
sg13
S'8151226429'
p3055
sa(dp3056
g11
S'http://farm7.staticflickr.com/6193/6042343394_0ea3b9830c_q.jpg'
p3057
sg13
S'6042343394'
p3058
sa(dp3059
g11
S'http://farm7.staticflickr.com/6226/6364169419_edbe0061b2_q.jpg'
p3060
sg13
S'6364169419'
p3061
sa(dp3062
g11
S'http://farm8.staticflickr.com/7100/7216746262_3e5fffe975_q.jpg'
p3063
sg13
S'7216746262'
p3064
sa(dp3065
g11
S'http://farm9.staticflickr.com/8172/8047074224_40f11ba1f0_q.jpg'
p3066
sg13
S'8047074224'
p3067
sa(dp3068
g11
S'http://farm9.staticflickr.com/8487/8197203120_24d91fe32c_q.jpg'
p3069
sg13
S'8197203120'
p3070
sa(dp3071
g11
S'http://farm6.staticflickr.com/5109/5621817885_627fe4c451_q.jpg'
p3072
sg13
S'5621817885'
p3073
sa(dp3074
g11
S'http://farm9.staticflickr.com/8441/7988768886_1bccc52ddc_q.jpg'
p3075
sg13
S'7988768886'
p3076
sa(dp3077
g11
S'http://farm8.staticflickr.com/7099/6986657744_f3846be15e_q.jpg'
p3078
sg13
S'6986657744'
p3079
sa(dp3080
g11
S'http://farm7.staticflickr.com/6100/6337916402_769058647c_q.jpg'
p3081
sg13
S'6337916402'
p3082
sas(S'Nikon D90'
g4
(g6
S'\x9d\x1c\xb6\xf7\x9b\xbd\xa1?'
tRp3083
tp3084
(lp3085
(dp3086
g11
S'http://farm5.staticflickr.com/4143/4923613961_3de79bef7c_q.jpg'
p3087
sg13
S'4923613961'
p3088
sa(dp3089
g11
S'http://farm5.staticflickr.com/4116/4859208681_fb9fd9934c_q.jpg'
p3090
sg13
S'4859208681'
p3091
sa(dp3092
g11
S'http://farm7.staticflickr.com/6184/6039996683_b1959bc10d_q.jpg'
p3093
sg13
S'6039996683'
p3094
sa(dp3095
g11
S'http://farm5.staticflickr.com/4074/4938087989_6aab6ba496_q.jpg'
p3096
sg13
S'4938087989'
p3097
sa(dp3098
g11
S'http://farm6.staticflickr.com/5207/5295580685_6cf9f40564_q.jpg'
p3099
sg13
S'5295580685'
p3100
sa(dp3101
g11
S'http://farm6.staticflickr.com/5314/5854278299_f90bd9c3d4_q.jpg'
p3102
sg13
S'5854278299'
p3103
sa(dp3104
g11
S'http://farm8.staticflickr.com/7001/6445595687_ba9628128f_q.jpg'
p3105
sg13
S'6445595687'
p3106
sa(dp3107
g11
S'http://farm5.staticflickr.com/4098/4829428379_1c71cc88e2_q.jpg'
p3108
sg13
S'4829428379'
p3109
sa(dp3110
g11
S'http://farm8.staticflickr.com/7055/6851737203_44f61cddf7_q.jpg'
p3111
sg13
S'6851737203'
p3112
sa(dp3113
g11
S'http://farm8.staticflickr.com/7171/6757727871_a3766e16a4_q.jpg'
p3114
sg13
S'6757727871'
p3115
sas(S'Nikon D800'
g4
(g6
S'~{\xb1c\x85$\x91?'
tRp3116
tp3117
(lp3118
(dp3119
g11
S'http://farm9.staticflickr.com/8110/8622213544_9fab1b8d2f_q.jpg'
p3120
sg13
S'8622213544'
p3121
sa(dp3122
g11
S'http://farm9.staticflickr.com/8242/8594720223_f33cfbe503_q.jpg'
p3123
sg13
S'8594720223'
p3124
sa(dp3125
g11
S'http://farm9.staticflickr.com/8003/7424908726_ca565b2e7a_q.jpg'
p3126
sg13
S'7424908726'
p3127
sa(dp3128
g11
S'http://farm9.staticflickr.com/8391/8593029534_33fd58dbb5_q.jpg'
p3129
sg13
S'8593029534'
p3130
sa(dp3131
g11
S'http://farm9.staticflickr.com/8235/8585847956_39864361e3_q.jpg'
p3132
sg13
S'8585847956'
p3133
sa(dp3134
g11
S'http://farm9.staticflickr.com/8487/8158094262_10540cde83_q.jpg'
p3135
sg13
S'8158094262'
p3136
sa(dp3137
g11
S'http://farm9.staticflickr.com/8367/8563954803_0c2624d6c1_q.jpg'
p3138
sg13
S'8563954803'
p3139
sa(dp3140
g11
S'http://farm9.staticflickr.com/8241/8615934775_7b0b345826_q.jpg'
p3141
sg13
S'8615934775'
p3142
sa(dp3143
g11
S'http://farm8.staticflickr.com/7122/7845106038_a8d4e2521d_q.jpg'
p3144
sg13
S'7845106038'
p3145
sa(dp3146
g11
S'http://farm9.staticflickr.com/8282/7830078788_a25b118174_q.jpg'
p3147
sg13
S'7830078788'
p3148
sas(S'Canon EOS 7D'
g4
(g6
S'\xed(\xff\x0f\x0e\xd9}?'
tRp3149
tp3150
(lp3151
(dp3152
g11
S'http://farm7.staticflickr.com/6024/5957182089_533fb7d418_q.jpg'
p3153
sg13
S'5957182089'
p3154
sa(dp3155
g11
S'http://farm6.staticflickr.com/5245/5231945478_ba55abaf51_q.jpg'
p3156
sg13
S'5231945478'
p3157
sa(dp3158
g11
S'http://farm7.staticflickr.com/6191/6074489451_8ff81fa57c_q.jpg'
p3159
sg13
S'6074489451'
p3160
sa(dp3161
g11
S'http://farm9.staticflickr.com/8357/8325886238_2e74787c32_q.jpg'
p3162
sg13
S'8325886238'
p3163
sa(dp3164
g11
S'http://farm7.staticflickr.com/6140/6009619546_cf1965362c_q.jpg'
p3165
sg13
S'6009619546'
p3166
sa(dp3167
g11
S'http://farm8.staticflickr.com/7261/6898671640_80c9c30010_q.jpg'
p3168
sg13
S'6898671640'
p3169
sa(dp3170
g11
S'http://farm9.staticflickr.com/8249/8515909256_c1b8fbce64_q.jpg'
p3171
sg13
S'8515909256'
p3172
sas(S'Canon EOS 5D'
g4
(g6
S"\xf4\x8d\xaa\x0b\xe2'\x82?"
tRp3173
tp3174
(lp3175
(dp3176
g11
S'http://farm3.staticflickr.com/2070/5736535986_bfd52168f9_q.jpg'
p3177
sg13
S'5736535986'
p3178
sa(dp3179
g11
S'http://farm6.staticflickr.com/5102/5573338779_d920412f21_q.jpg'
p3180
sg13
S'5573338779'
p3181
sa(dp3182
g11
S'http://farm6.staticflickr.com/5250/5362622315_102861afa9_q.jpg'
p3183
sg13
S'5362622315'
p3184
sa(dp3185
g11
S'http://farm5.staticflickr.com/4145/4841456241_04ba83c0aa_q.jpg'
p3186
sg13
S'4841456241'
p3187
sa(dp3188
g11
S'http://farm6.staticflickr.com/5206/5382211481_64aa7e0f5c_q.jpg'
p3189
sg13
S'5382211481'
p3190
sa(dp3191
g11
S'http://farm6.staticflickr.com/5229/5692346189_3082eedc02_q.jpg'
p3192
sg13
S'5692346189'
p3193
sa(dp3194
g11
S'http://farm6.staticflickr.com/5216/5431637314_9d6376f5e6_q.jpg'
p3195
sg13
S'5431637314'
p3196
sa(dp3197
g11
S'http://farm7.staticflickr.com/6031/6276153988_085bbff331_q.jpg'
p3198
sg13
S'6276153988'
p3199
sa(dp3200
g11
S'http://farm6.staticflickr.com/5026/5630883586_1f5cbeb29c_q.jpg'
p3201
sg13
S'5630883586'
p3202
sa(dp3203
g11
S'http://farm6.staticflickr.com/5214/5520457320_498de61a9e_q.jpg'
p3204
sg13
S'5520457320'
p3205
sas(S'Nikon D300'
g4
(g6
S'!\xed\xff\xbf5\xce\x93?'
tRp3206
tp3207
(lp3208
(dp3209
g11
S'http://farm5.staticflickr.com/4113/4971114917_e8709386ec_q.jpg'
p3210
sg13
S'4971114917'
p3211
sa(dp3212
g11
S'http://farm6.staticflickr.com/5188/5567810976_2282d22e48_q.jpg'
p3213
sg13
S'5567810976'
p3214
sa(dp3215
g11
S'http://farm6.staticflickr.com/5171/5421126386_552eda819d_q.jpg'
p3216
sg13
S'5421126386'
p3217
sa(dp3218
g11
S'http://farm5.staticflickr.com/4099/5413219165_ed5bb58366_q.jpg'
p3219
sg13
S'5413219165'
p3220
sa(dp3221
g11
S'http://farm8.staticflickr.com/7144/6695766815_76f1fc4316_q.jpg'
p3222
sg13
S'6695766815'
p3223
sa(dp3224
g11
S'http://farm7.staticflickr.com/6216/6246537367_b302eed1f2_q.jpg'
p3225
sg13
S'6246537367'
p3226
sa(dp3227
g11
S'http://farm9.staticflickr.com/8481/8209550398_6b0b2f824a_q.jpg'
p3228
sg13
S'8209550398'
p3229
sa(dp3230
g11
S'http://farm5.staticflickr.com/4087/5172486194_4cc3999cb9_q.jpg'
p3231
sg13
S'5172486194'
p3232
sa(dp3233
g11
S'http://farm8.staticflickr.com/7018/6821644239_0d806b279a_q.jpg'
p3234
sg13
S'6821644239'
p3235
sa(dp3236
g11
S'http://farm2.staticflickr.com/1422/5152017618_2aac287e45_q.jpg'
p3237
sg13
S'5152017618'
p3238
sas(S'Canon EOS 50D'
g4
(g6
S'\xa4\rkL\xf9\xb3\x95?'
tRp3239
tp3240
(lp3241
(dp3242
g11
S'http://farm6.staticflickr.com/5130/5342325589_3eece1bcb4_q.jpg'
p3243
sg13
S'5342325589'
p3244
sa(dp3245
g11
S'http://farm6.staticflickr.com/5048/5372399116_96b2c385f7_q.jpg'
p3246
sg13
S'5372399116'
p3247
sa(dp3248
g11
S'http://farm3.staticflickr.com/2487/5718837564_a8e27c5668_q.jpg'
p3249
sg13
S'5718837564'
p3250
sa(dp3251
g11
S'http://farm6.staticflickr.com/5043/5223733307_92fc2223ef_q.jpg'
p3252
sg13
S'5223733307'
p3253
sa(dp3254
g11
S'http://farm2.staticflickr.com/1242/5122474993_401191bd36_q.jpg'
p3255
sg13
S'5122474993'
p3256
sa(dp3257
g11
S'http://farm6.staticflickr.com/5285/5217900350_c9e329cbf9_q.jpg'
p3258
sg13
S'5217900350'
p3259
sa(dp3260
g11
S'http://farm6.staticflickr.com/5267/5625965457_f8cfbfda58_q.jpg'
p3261
sg13
S'5625965457'
p3262
sa(dp3263
g11
S'http://farm5.staticflickr.com/4139/4929220497_02275ee6a8_q.jpg'
p3264
sg13
S'4929220497'
p3265
sa(dp3266
g11
S'http://farm6.staticflickr.com/5052/5424584715_d5678970df_q.jpg'
p3267
sg13
S'5424584715'
p3268
sa(dp3269
g11
S'http://farm6.staticflickr.com/5044/5270083478_4336c1f4e7_q.jpg'
p3270
sg13
S'5270083478'
p3271
sas(S'Nikon D700'
g4
(g6
S'\xa3\xe4\xcf!\xa1\x96\xa0?'
tRp3272
tp3273
(lp3274
(dp3275
g11
S'http://farm7.staticflickr.com/6043/5907192490_4848b463e6_q.jpg'
p3276
sg13
S'5907192490'
p3277
sa(dp3278
g11
S'http://farm8.staticflickr.com/7093/7190272344_a10e3e36f3_q.jpg'
p3279
sg13
S'7190272344'
p3280
sa(dp3281
g11
S'http://farm7.staticflickr.com/6169/6166839745_e4a5da6e6b_q.jpg'
p3282
sg13
S'6166839745'
p3283
sa(dp3284
g11
S'http://farm9.staticflickr.com/8322/8032195208_a366cf6a63_q.jpg'
p3285
sg13
S'8032195208'
p3286
sa(dp3287
g11
S'http://farm2.staticflickr.com/1384/5164472892_6c33cd1922_q.jpg'
p3288
sg13
S'5164472892'
p3289
sa(dp3290
g11
S'http://farm9.staticflickr.com/8517/8498895234_63bb11a55d_q.jpg'
p3291
sg13
S'8498895234'
p3292
sa(dp3293
g11
S'http://farm9.staticflickr.com/8340/8188108846_321aa65798_q.jpg'
p3294
sg13
S'8188108846'
p3295
sa(dp3296
g11
S'http://farm5.staticflickr.com/4130/5184313777_17c3c21fae_q.jpg'
p3297
sg13
S'5184313777'
p3298
sa(dp3299
g11
S'http://farm9.staticflickr.com/8036/8039719584_84c5bf6a26_q.jpg'
p3300
sg13
S'8039719584'
p3301
sa(dp3302
g11
S'http://farm6.staticflickr.com/5187/5848154940_34c0641107_q.jpg'
p3303
sg13
S'5848154940'
p3304
sas(S'Canon EOS 5D Mark II'
g4
(g6
S'\x00/\xcd\xff\xa7&\xba?'
tRp3305
tp3306
(lp3307
(dp3308
g11
S'http://farm8.staticflickr.com/7173/6550093815_2c0ba20f71_q.jpg'
p3309
sg13
S'6550093815'
p3310
sa(dp3311
g11
S'http://farm8.staticflickr.com/7024/6788175491_a6aaa5bd19_q.jpg'
p3312
sg13
S'6788175491'
p3313
sa(dp3314
g11
S'http://farm6.staticflickr.com/5191/5887313039_51474becb4_q.jpg'
p3315
sg13
S'5887313039'
p3316
sa(dp3317
g11
S'http://farm6.staticflickr.com/5042/5345973796_0f4b3acb37_q.jpg'
p3318
sg13
S'5345973796'
p3319
sa(dp3320
g11
S'http://farm5.staticflickr.com/4145/4997428776_b4071ae9c9_q.jpg'
p3321
sg13
S'4997428776'
p3322
sa(dp3323
g11
S'http://farm6.staticflickr.com/5212/5512246194_68fe6f8582_q.jpg'
p3324
sg13
S'5512246194'
p3325
sa(dp3326
g11
S'http://farm7.staticflickr.com/6149/5935494090_8d42c1c153_q.jpg'
p3327
sg13
S'5935494090'
p3328
sa(dp3329
g11
S'http://farm7.staticflickr.com/6221/6343009769_4870362f4f_q.jpg'
p3330
sg13
S'6343009769'
p3331
sa(dp3332
g11
S'http://farm4.staticflickr.com/3314/5735893153_f99df51a9f_q.jpg'
p3333
sg13
S'5735893153'
p3334
sa(dp3335
g11
S'http://farm8.staticflickr.com/7169/6634250857_6a12f089fb_q.jpg'
p3336
sg13
S'6634250857'
p3337
sass.