(dp1
S'wildlife'
p2
(dp3
(S'Nikon D300'
cnumpy.core.multiarray
scalar
p4
(cnumpy
dtype
p5
(S'f8'
I0
I1
tRp6
(I3
S'<'
NNNI-1
I-1
I0
tbS'B\xd7v\x86\xe4\xed\x9a?'
tRp7
tp8
(lp9
S'http://farm5.staticflickr.com/4142/4761391441_4a7f1e7d78_q.jpg'
p10
aS'http://farm3.staticflickr.com/2185/2222846422_78d5364225_q.jpg'
p11
aS'http://farm7.staticflickr.com/6231/6294453879_2c4b50b089_q.jpg'
p12
aS'http://farm5.staticflickr.com/4102/4863225435_e860b4b334_q.jpg'
p13
aS'http://farm5.staticflickr.com/4085/5031363670_6cd1e984f3_q.jpg'
p14
aS'http://farm4.staticflickr.com/3538/3497051952_4310f13fe2_q.jpg'
p15
aS'http://farm4.staticflickr.com/3127/2557243867_c64b46b2c3_q.jpg'
p16
aS'http://farm3.staticflickr.com/2470/3705878605_50f7a4a469_q.jpg'
p17
aS'http://farm2.staticflickr.com/1366/5103507600_76f92d6c79_q.jpg'
p18
aS'http://farm5.staticflickr.com/4142/4891077372_5f62ed82a0_q.jpg'
p19
as(S'Canon EOS 7D'
g4
(g6
S'\xb5\n^\xde\x85\xf5\x9f?'
tRp20
tp21
(lp22
S'http://farm5.staticflickr.com/4135/4824025773_f02340d74b_q.jpg'
p23
aS'http://farm8.staticflickr.com/7019/6606300495_e7de2a9af0_q.jpg'
p24
aS'http://farm3.staticflickr.com/2728/4462067409_5c681f1fcc_q.jpg'
p25
aS'http://farm8.staticflickr.com/7056/6874616815_89f65508ed_q.jpg'
p26
aS'http://farm7.staticflickr.com/6027/5931005984_0364fbef44_q.jpg'
p27
aS'http://farm5.staticflickr.com/4041/4281836536_2ca83c2602_q.jpg'
p28
aS'http://farm5.staticflickr.com/4083/4951270555_55d139c906_q.jpg'
p29
aS'http://farm9.staticflickr.com/8229/8599066951_654f220755_q.jpg'
p30
aS'http://farm9.staticflickr.com/8325/8134419938_44f8368434_q.jpg'
p31
aS'http://farm7.staticflickr.com/6117/6237601418_eb226d9bd8_q.jpg'
p32
as(S'Canon EOS 30D'
g4
(g6
S'B\xfc|\x01%I\x8e?'
tRp33
tp34
(lp35
S'http://farm4.staticflickr.com/3661/3326551830_7c70bfbf70_q.jpg'
p36
aS'http://farm4.staticflickr.com/3340/3440460075_ae7b1b9763_q.jpg'
p37
aS'http://farm2.staticflickr.com/1268/564021921_744e87e9e2_q.jpg'
p38
aS'http://farm2.staticflickr.com/1264/537532650_e1dd1011d4_q.jpg'
p39
aS'http://farm3.staticflickr.com/2474/3915413518_385a620d8b_q.jpg'
p40
aS'http://farm4.staticflickr.com/3557/3360651816_526cb4faeb_q.jpg'
p41
aS'http://farm4.staticflickr.com/3133/3197164352_3635a1f7fa_q.jpg'
p42
aS'http://farm1.staticflickr.com/79/240248840_c6814f2480_q.jpg'
p43
aS'http://farm4.staticflickr.com/3031/3080395402_5cccb1cb63_q.jpg'
p44
aS'http://farm1.staticflickr.com/93/259095747_c395ae3eb1_q.jpg'
p45
as(S'Canon EOS-1D Mark IV'
g4
(g6
S'\x86\xc0\x07\x8e\xfa\xe8\x89?'
tRp46
tp47
(lp48
S'http://farm7.staticflickr.com/6218/6349986309_5249fc1f03_q.jpg'
p49
aS'http://farm2.staticflickr.com/1376/5105389832_1be0c0241d_q.jpg'
p50
aS'http://farm6.staticflickr.com/5341/6924947888_b19c6ee9e5_q.jpg'
p51
aS'http://farm5.staticflickr.com/4046/4636470688_5af6ff7f58_q.jpg'
p52
aS'http://farm5.staticflickr.com/4056/4647474843_69e781b8b5_q.jpg'
p53
aS'http://farm8.staticflickr.com/7014/6744089099_c554f85f2e_q.jpg'
p54
aS'http://farm5.staticflickr.com/4126/4964455924_e4bc564913_q.jpg'
p55
aS'http://farm7.staticflickr.com/6028/6002251106_ac4bc345c1_q.jpg'
p56
aS'http://farm6.staticflickr.com/5029/5661085795_5c77b947c5_q.jpg'
p57
aS'http://farm6.staticflickr.com/5134/5585701476_774d9e2d8a_q.jpg'
p58
as(S'Nikon D200'
g4
(g6
S'\xcb\xa9\x140\x85\xaf\x8b?'
tRp59
tp60
(lp61
S'http://farm8.staticflickr.com/7150/6749200633_7892159656_q.jpg'
p62
aS'http://farm6.staticflickr.com/5201/5367908760_5c5b8d6203_q.jpg'
p63
aS'http://farm8.staticflickr.com/7031/6555373293_1d11c72dd9_q.jpg'
p64
aS'http://farm7.staticflickr.com/6035/6379538751_4a4f946b46_q.jpg'
p65
aS'http://farm1.staticflickr.com/207/488435693_e957397db0_q.jpg'
p66
aS'http://farm4.staticflickr.com/3642/3632681654_b6822367af_q.jpg'
p67
aS'http://farm8.staticflickr.com/7161/6442602799_a58f8d354a_q.jpg'
p68
aS'http://farm5.staticflickr.com/4051/4347675112_c55ff48db6_q.jpg'
p69
aS'http://farm8.staticflickr.com/7100/7134487403_4d2fa07000_q.jpg'
p70
aS'http://farm6.staticflickr.com/5256/5429792130_885219195d_q.jpg'
p71
as(S'Canon EOS 40D'
g4
(g6
S'\xc3\xc6\xcel\x8d\x84\x93?'
tRp72
tp73
(lp74
S'http://farm3.staticflickr.com/2753/4435326649_c2c667cc38_q.jpg'
p75
aS'http://farm3.staticflickr.com/2587/3959338718_dd09c098c5_q.jpg'
p76
aS'http://farm4.staticflickr.com/3280/3066304002_1fb10c0735_q.jpg'
p77
aS'http://farm4.staticflickr.com/3095/3202066054_93bea1c15e_q.jpg'
p78
aS'http://farm4.staticflickr.com/3212/2515947607_30dd82a92d_q.jpg'
p79
aS'http://farm4.staticflickr.com/3257/3163013413_5b595486d8_q.jpg'
p80
aS'http://farm4.staticflickr.com/3470/3295906270_22b827a407_q.jpg'
p81
aS'http://farm4.staticflickr.com/3464/3877698519_f176c81962_q.jpg'
p82
aS'http://farm3.staticflickr.com/2623/3864735227_337b28a376_q.jpg'
p83
aS'http://farm4.staticflickr.com/3049/3050800244_cd3ff3c037_q.jpg'
p84
as(S'Canon EOS 20D'
g4
(g6
S'\xb3\x07lkB\x8b\x96?'
tRp85
tp86
(lp87
S'http://farm4.staticflickr.com/3607/3534521190_388cfbf73c_q.jpg'
p88
aS'http://farm4.staticflickr.com/3288/2990894085_dfbcc00afc_q.jpg'
p89
aS'http://farm2.staticflickr.com/1194/1208040355_c3a1cc4747_q.jpg'
p90
aS'http://farm3.staticflickr.com/2234/2324065607_1b23fd5a2e_q.jpg'
p91
aS'http://farm4.staticflickr.com/3060/2432854239_5272401cfe_q.jpg'
p92
aS'http://farm1.staticflickr.com/74/168435621_fcde06e49e_q.jpg'
p93
aS'http://farm1.staticflickr.com/241/458980536_bd8a3fd48b_q.jpg'
p94
aS'http://farm3.staticflickr.com/2542/3685560684_5a3361a8b0_q.jpg'
p95
aS'http://farm1.staticflickr.com/218/445267544_992df924aa_q.jpg'
p96
aS'http://farm3.staticflickr.com/2018/2087651433_c20ec7e395_q.jpg'
p97
as(S'Canon EOS 5D Mark II'
g4
(g6
S'\x02K\xf6\xfa\x08\xdd\x9c?'
tRp98
tp99
(lp100
S'http://farm7.staticflickr.com/6138/6008145586_8752c05edc_q.jpg'
p101
aS'http://farm2.staticflickr.com/1407/5114048088_cd49245508_q.jpg'
p102
aS'http://farm8.staticflickr.com/7077/7174848676_200b4b5a19_q.jpg'
p103
aS'http://farm7.staticflickr.com/6009/5943161471_39394654d0_q.jpg'
p104
aS'http://farm3.staticflickr.com/2475/3968835225_7ba9c080d5_q.jpg'
p105
aS'http://farm5.staticflickr.com/4088/5099003608_11bb2a135b_q.jpg'
p106
aS'http://farm7.staticflickr.com/6031/6308644276_b547710068_q.jpg'
p107
aS'http://farm6.staticflickr.com/5224/5623891746_1d10d66b2a_q.jpg'
p108
aS'http://farm8.staticflickr.com/7171/6794514775_9c2cd79f2d_q.jpg'
p109
aS'http://farm5.staticflickr.com/4072/4434596193_3648990975_q.jpg'
p110
as(S'Nikon D3'
g4
(g6
S'\x1a5\x90\x0c_\xec\x97?'
tRp111
tp112
(lp113
S'http://farm5.staticflickr.com/4082/4865289455_7f7a7ec829_q.jpg'
p114
aS'http://farm6.staticflickr.com/5205/5234428476_1b62623618_q.jpg'
p115
aS'http://farm5.staticflickr.com/4146/4953744182_24686cc985_q.jpg'
p116
aS'http://farm5.staticflickr.com/4083/4964510674_140931a8e0_q.jpg'
p117
aS'http://farm7.staticflickr.com/6115/6376955007_af5e190e8f_q.jpg'
p118
aS'http://farm7.staticflickr.com/6085/6043633815_4716ea0698_q.jpg'
p119
aS'http://farm4.staticflickr.com/3280/5750512012_c4e4cc9e42_q.jpg'
p120
aS'http://farm5.staticflickr.com/4133/5142598234_4b68c7699c_q.jpg'
p121
aS'http://farm5.staticflickr.com/4110/5035599973_dbdbb2bd7a_q.jpg'
p122
aS'http://farm5.staticflickr.com/4106/5183698985_3de62cc43d_q.jpg'
p123
as(S'Nikon D90'
g4
(g6
S'\x01K\xa9v\xff\xc5\x87?'
tRp124
tp125
(lp126
S'http://farm4.staticflickr.com/3535/3814549670_5fc534c7e2_q.jpg'
p127
aS'http://farm8.staticflickr.com/7180/6915653255_8b9d324a2b_q.jpg'
p128
aS'http://farm5.staticflickr.com/4087/5218675956_13d7c5c111_q.jpg'
p129
aS'http://farm8.staticflickr.com/7255/7605038914_5b8837a2e5_q.jpg'
p130
aS'http://farm4.staticflickr.com/3485/3748425439_55d6b1f218_q.jpg'
p131
aS'http://farm3.staticflickr.com/2595/3955615427_4a948a31a0_q.jpg'
p132
aS'http://farm3.staticflickr.com/2386/3532085228_b4959b0c15_q.jpg'
p133
aS'http://farm4.staticflickr.com/3312/4628851140_56ab871141_q.jpg'
p134
aS'http://farm4.staticflickr.com/3424/3405196223_1305590a65_q.jpg'
p135
aS'http://farm5.staticflickr.com/4048/4513975573_2dbebb0dde_q.jpg'
p136
assS'art'
p137
(dp138
(S'Canon EOS 40D'
g4
(g6
S'\x07e\x03\xd5\xfbj\x86?'
tRp139
tp140
(lp141
S'http://farm4.staticflickr.com/3067/2968547143_bbc2d25d17_q.jpg'
p142
aS'http://farm3.staticflickr.com/2055/2074297513_e11f656eef_q.jpg'
p143
aS'http://farm3.staticflickr.com/2651/3983495601_97d126df5b_q.jpg'
p144
aS'http://farm4.staticflickr.com/3537/3506662435_f50a7b9b90_q.jpg'
p145
aS'http://farm4.staticflickr.com/3395/3613139939_b675f22146_q.jpg'
p146
aS'http://farm4.staticflickr.com/3604/3420179255_daa7bf0698_q.jpg'
p147
aS'http://farm4.staticflickr.com/3439/3855931262_d4e87ce22d_q.jpg'
p148
aS'http://farm4.staticflickr.com/3119/2638476026_140d2ecbce_q.jpg'
p149
aS'http://farm3.staticflickr.com/2799/4119311910_2c17621997_q.jpg'
p150
as(S'Nikon D80'
g4
(g6
S'^\x92C\xd3WA\x86?'
tRp151
tp152
(lp153
S'http://farm4.staticflickr.com/3369/3624337047_0acbcd3212_q.jpg'
p154
aS'http://farm4.staticflickr.com/3235/3104475168_e4050ba4d4_q.jpg'
p155
aS'http://farm4.staticflickr.com/3322/3517559597_dfb1c3c368_q.jpg'
p156
aS'http://farm3.staticflickr.com/2286/2380903904_52c3de6ff1_q.jpg'
p157
aS'http://farm4.staticflickr.com/3049/3011652587_1726bed927_q.jpg'
p158
aS'http://farm5.staticflickr.com/4147/4835397954_89f0b0821d_q.jpg'
p159
as(S'Canon EOS 5D Mark II'
g4
(g6
S'r!E\xf1\x81z\xac?'
tRp160
tp161
(lp162
S'http://farm5.staticflickr.com/4094/4763060841_1f6cc1663e_q.jpg'
p163
aS'http://farm5.staticflickr.com/4055/4564780513_13a2c65e07_q.jpg'
p164
aS'http://farm4.staticflickr.com/3314/5735893153_f99df51a9f_q.jpg'
p165
aS'http://farm8.staticflickr.com/7169/6634250857_6a12f089fb_q.jpg'
p166
aS'http://farm6.staticflickr.com/5009/5204997413_89008e51b2_q.jpg'
p167
aS'http://farm5.staticflickr.com/4095/4830102485_547053b4b9_q.jpg'
p168
aS'http://farm8.staticflickr.com/7207/6917838169_5e2004da39_q.jpg'
p169
aS'http://farm5.staticflickr.com/4072/4300612662_79b715562c_q.jpg'
p170
aS'http://farm5.staticflickr.com/4005/4635564278_a4ecc699c2_q.jpg'
p171
aS'http://farm8.staticflickr.com/7150/6534007889_77642f6724_q.jpg'
p172
as(S'Canon EOS 50D'
g4
(g6
S'\xa6H\xeb=}\xf9\x8f?'
tRp173
tp174
(lp175
S'http://farm5.staticflickr.com/4012/4536902551_d46509bb42_q.jpg'
p176
aS'http://farm4.staticflickr.com/3242/2988593104_def9336543_q.jpg'
p177
aS'http://farm6.staticflickr.com/5041/5376990179_684970449d_q.jpg'
p178
aS'http://farm5.staticflickr.com/4151/4953762704_03bb46d17c_q.jpg'
p179
aS'http://farm5.staticflickr.com/4011/4548650039_bc7456d51b_q.jpg'
p180
aS'http://farm5.staticflickr.com/4085/5058396477_3180b1f9cf_q.jpg'
p181
aS'http://farm3.staticflickr.com/2494/3804831303_12c1c87c9e_q.jpg'
p182
aS'http://farm5.staticflickr.com/4035/4223554509_7b486534cd_q.jpg'
p183
aS'http://farm5.staticflickr.com/4081/4897258800_8383a24af7_q.jpg'
p184
aS'http://farm5.staticflickr.com/4147/4986043220_af8848cf83_q.jpg'
p185
as(S'Fujifilm FinePix S100fs'
g4
(g6
S'\x7fj\x1fx\xb0R\x7f?'
tRp186
tp187
(lp188
S'http://farm4.staticflickr.com/3234/2619641501_072d9a9a26_q.jpg'
p189
aS'http://farm4.staticflickr.com/3144/3070611020_33eacfecbf_q.jpg'
p190
aS'http://farm4.staticflickr.com/3301/3513516394_de22efef36_q.jpg'
p191
aS'http://farm4.staticflickr.com/3127/2630535974_d5a0c70135_q.jpg'
p192
as(S'Canon EOS 7D'
g4
(g6
S'\xe2M\xe4K2\x82{?'
tRp193
tp194
(lp195
S'http://farm7.staticflickr.com/6193/6123756491_1ed99bc186_q.jpg'
p196
aS'http://farm8.staticflickr.com/7036/6970971379_574a359d92_q.jpg'
p197
aS'http://farm3.staticflickr.com/2625/4013376615_cc8ac16ac4_q.jpg'
p198
aS'http://farm3.staticflickr.com/2752/4049434751_ca3e2e3885_q.jpg'
p199
aS'http://farm4.staticflickr.com/3139/3004363974_64d615f4ab_q.jpg'
p200
aS'http://farm3.staticflickr.com/2777/4058426598_c2e99b3430_q.jpg'
p201
aS'http://farm5.staticflickr.com/4073/4893808422_8f0580450a_q.jpg'
p202
aS'http://farm3.staticflickr.com/2658/4060183747_4417c50e10_q.jpg'
p203
aS'http://farm5.staticflickr.com/4097/4848780189_d71f5559da_q.jpg'
p204
aS'http://farm6.staticflickr.com/5027/5634278063_2c5c8b0d53_q.jpg'
p205
as(S'Nikon D700'
g4
(g6
S'\x14+1\xc9M\xd6\x9b?'
tRp206
tp207
(lp208
S'http://farm5.staticflickr.com/4116/4882097239_d9e30a2c48_q.jpg'
p209
aS'http://farm8.staticflickr.com/7093/7190272344_a10e3e36f3_q.jpg'
p210
aS'http://farm9.staticflickr.com/8322/8032195208_a366cf6a63_q.jpg'
p211
aS'http://farm4.staticflickr.com/3380/3597786267_56bd440c90_q.jpg'
p212
aS'http://farm5.staticflickr.com/4084/4963965458_688ede87be_q.jpg'
p213
aS'http://farm9.staticflickr.com/8162/7612589054_43b7b646d1_q.jpg'
p214
aS'http://farm9.staticflickr.com/8517/8498895234_63bb11a55d_q.jpg'
p215
aS'http://farm4.staticflickr.com/3385/3272509748_6ff19b8cb2_q.jpg'
p216
aS'http://farm9.staticflickr.com/8340/8188108846_321aa65798_q.jpg'
p217
aS'http://farm9.staticflickr.com/8320/8062924745_f6cde3877c_q.jpg'
p218
as(S'Nikon D70s'
g4
(g6
S'\t\xc9\xaa\xaa\xa3\xae\x9a?'
tRp219
tp220
(lp221
S'http://farm3.staticflickr.com/2675/3883532523_c3989019d1_q.jpg'
p222
aS'http://farm5.staticflickr.com/4025/4620617245_d2f887d23a_q.jpg'
p223
aS'http://farm3.staticflickr.com/2745/4520340022_66dd753b24_q.jpg'
p224
aS'http://farm3.staticflickr.com/2422/3671342296_9a3be12a59_q.jpg'
p225
aS'http://farm5.staticflickr.com/4061/4638793266_1db977cd32_q.jpg'
p226
aS'http://farm3.staticflickr.com/2599/4407129555_9ff95ce0e1_q.jpg'
p227
aS'http://farm3.staticflickr.com/2443/3997805265_4d339f3135_q.jpg'
p228
aS'http://farm4.staticflickr.com/3650/3637075385_2c58bfbc5b_q.jpg'
p229
aS'http://farm4.staticflickr.com/3452/3786233351_a1d9b10aab_q.jpg'
p230
aS'http://farm4.staticflickr.com/3517/3758474869_50d3a6b0a5_q.jpg'
p231
as(S'Nikon D90'
g4
(g6
S'b$E\xbaoS\x96?'
tRp232
tp233
(lp234
S'http://farm2.staticflickr.com/1021/4729320403_8fc928b73d_q.jpg'
p235
aS'http://farm3.staticflickr.com/2557/3733805627_ebe8c1de5d_q.jpg'
p236
aS'http://farm5.staticflickr.com/4023/4677489081_b704262065_q.jpg'
p237
aS'http://farm5.staticflickr.com/4098/4763291528_daff5af148_q.jpg'
p238
aS'http://farm5.staticflickr.com/4116/4859208681_fb9fd9934c_q.jpg'
p239
aS'http://farm5.staticflickr.com/4071/4448195960_b7ba85dbd8_q.jpg'
p240
aS'http://farm2.staticflickr.com/1388/4723873270_3d1ac08ff4_q.jpg'
p241
aS'http://farm2.staticflickr.com/1315/5131495638_8a29623665_q.jpg'
p242
aS'http://farm5.staticflickr.com/4134/4741994428_225bb91991_q.jpg'
p243
aS'http://farm6.staticflickr.com/5069/5549675610_450ec6489a_q.jpg'
p244
as(S'Samsung NX10'
g4
(g6
S'a1*\x1a\xab\xb6\x86?'
tRp245
tp246
(lp247
S'http://farm6.staticflickr.com/5002/5191567844_1d14654b32_q.jpg'
p248
aS'http://farm8.staticflickr.com/7204/6937667885_f69670ab80_q.jpg'
p249
aS'http://farm5.staticflickr.com/4085/5097965206_583601e627_q.jpg'
p250
aS'http://farm5.staticflickr.com/4091/5191268313_106df73556_q.jpg'
p251
aS'http://farm6.staticflickr.com/5166/5224260028_f91246d605_q.jpg'
p252
aS'http://farm6.staticflickr.com/5282/5221485070_8104a0f42a_q.jpg'
p253
aS'http://farm6.staticflickr.com/5097/5405316467_41a5244b5d_q.jpg'
p254
aS'http://farm5.staticflickr.com/4071/4684069079_25b53958a7_q.jpg'
p255
aS'http://farm5.staticflickr.com/4122/4899958027_7fb15671d0_q.jpg'
p256
aS'http://farm6.staticflickr.com/5124/5222187457_506d4c8648_q.jpg'
p257
assS'nature'
p258
(dp259
(S'Samsung NX10'
g4
(g6
S'%\x19\x99V\x84\x96\x8f?'
tRp260
tp261
(lp262
S'http://farm6.staticflickr.com/5002/5191567844_1d14654b32_q.jpg'
p263
aS'http://farm5.staticflickr.com/4123/4896942316_9a0ea87cdf_q.jpg'
p264
aS'http://farm5.staticflickr.com/4091/5191268313_106df73556_q.jpg'
p265
aS'http://farm6.staticflickr.com/5166/5224260028_f91246d605_q.jpg'
p266
aS'http://farm2.staticflickr.com/1298/5188694473_c9670571d7_q.jpg'
p267
as(S'Panasonic DMC-LX3'
g4
(g6
S'kH\xcb\xa2\xee\x8b\x82?'
tRp268
tp269
(lp270
S'http://farm8.staticflickr.com/7035/6522099087_57b01d7424_q.jpg'
p271
aS'http://farm7.staticflickr.com/6064/6101300180_0467d06aea_q.jpg'
p272
aS'http://farm7.staticflickr.com/6158/6152927177_e764a4c9a6_q.jpg'
p273
aS'http://farm9.staticflickr.com/8104/8654841897_a15e6342e8_q.jpg'
p274
aS'http://farm8.staticflickr.com/7146/6772214933_a5d596dc4a_q.jpg'
p275
aS'http://farm8.staticflickr.com/7011/6731517975_96aa2a8383_q.jpg'
p276
aS'http://farm7.staticflickr.com/6186/6074030884_e046beb277_q.jpg'
p277
aS'http://farm8.staticflickr.com/7144/6777131751_a20a9d805f_q.jpg'
p278
aS'http://farm7.staticflickr.com/6201/6113325279_a77f9e48cc_q.jpg'
p279
aS'http://farm4.staticflickr.com/3064/5840203957_543e3c1324_q.jpg'
p280
as(S'Canon EOS 20D'
g4
(g6
S'\x02\xc0&B\xb0|\xb2?'
tRp281
tp282
(lp283
S'http://farm2.staticflickr.com/1156/942938486_65b6d1efe7_q.jpg'
p284
aS'http://farm1.staticflickr.com/33/63452603_b3a5b5448d_q.jpg'
p285
as(S'Canon EOS 50D'
g4
(g6
S'\xbcV\xf3C\xe2r\x8d?'
tRp286
tp287
(lp288
S'http://farm5.staticflickr.com/4012/4536902551_d46509bb42_q.jpg'
p289
aS'http://farm6.staticflickr.com/5048/5372399116_96b2c385f7_q.jpg'
p290
aS'http://farm3.staticflickr.com/2487/5718837564_a8e27c5668_q.jpg'
p291
aS'http://farm6.staticflickr.com/5267/5625965457_f8cfbfda58_q.jpg'
p292
aS'http://farm5.staticflickr.com/4011/4548650039_bc7456d51b_q.jpg'
p293
aS'http://farm6.staticflickr.com/5052/5424584715_d5678970df_q.jpg'
p294
aS'http://farm3.staticflickr.com/2790/4523140937_c3ab6e3ee4_q.jpg'
p295
aS'http://farm5.staticflickr.com/4042/4568168052_2ec855de25_q.jpg'
p296
aS'http://farm5.staticflickr.com/4006/5131022085_62876bbfbd_q.jpg'
p297
aS'http://farm7.staticflickr.com/6130/5980144047_4e77fa70fd_q.jpg'
p298
as(S'Canon EOS 7D'
g4
(g6
S'RO\xb3xfC\x8d?'
tRp299
tp300
(lp301
S'http://farm6.staticflickr.com/5245/5231945478_ba55abaf51_q.jpg'
p302
aS'http://farm5.staticflickr.com/4135/4824025773_f02340d74b_q.jpg'
p303
aS'http://farm3.staticflickr.com/2728/4462067409_5c681f1fcc_q.jpg'
p304
aS'http://farm4.staticflickr.com/3076/5838129914_7d8be12e72_q.jpg'
p305
aS'http://farm5.staticflickr.com/4069/5106593217_f8e748329a_q.jpg'
p306
aS'http://farm3.staticflickr.com/2291/5796529061_4f8a7185c8_q.jpg'
p307
aS'http://farm8.staticflickr.com/7164/6515250081_3fbf5740dc_q.jpg'
p308
aS'http://farm9.staticflickr.com/8357/8325886238_2e74787c32_q.jpg'
p309
aS'http://farm5.staticflickr.com/4088/5217564633_3e6886e31a_q.jpg'
p310
aS'http://farm7.staticflickr.com/6058/6368881029_0145030234_q.jpg'
p311
as(S'Canon PowerShot G11'
g4
(g6
S'\xfa\xbd\xe2\x83l-\x82?'
tRp312
tp313
(lp314
S'http://farm8.staticflickr.com/7280/8151226429_8743c8f386_q.jpg'
p315
aS'http://farm7.staticflickr.com/6193/6042343394_0ea3b9830c_q.jpg'
p316
aS'http://farm7.staticflickr.com/6226/6364169419_edbe0061b2_q.jpg'
p317
aS'http://farm8.staticflickr.com/7100/7216746262_3e5fffe975_q.jpg'
p318
aS'http://farm9.staticflickr.com/8487/8197203120_24d91fe32c_q.jpg'
p319
aS'http://farm6.staticflickr.com/5109/5621817885_627fe4c451_q.jpg'
p320
aS'http://farm9.staticflickr.com/8441/7988768886_1bccc52ddc_q.jpg'
p321
aS'http://farm8.staticflickr.com/7099/6986657744_f3846be15e_q.jpg'
p322
aS'http://farm8.staticflickr.com/7258/7568930764_0d5a358c10_q.jpg'
p323
aS'http://farm9.staticflickr.com/8472/8128163824_4891dca977_q.jpg'
p324
as(S'Canon EOS 5D Mark II'
g4
(g6
S'y:8\xc7T\x9e\xac?'
tRp325
tp326
(lp327
S'http://farm1.staticflickr.com/99/4568749456_59165a5141_q.jpg'
p328
aS'http://farm5.staticflickr.com/4123/4869240902_727d95717b_q.jpg'
p329
aS'http://farm2.staticflickr.com/1085/4721202445_8e593e62e0_q.jpg'
p330
aS'http://farm5.staticflickr.com/4025/4446003230_b4523afd36_q.jpg'
p331
aS'http://farm3.staticflickr.com/2546/5835280777_d067530833_q.jpg'
p332
aS'http://farm5.staticflickr.com/4026/4499220627_d2cd8b3280_q.jpg'
p333
aS'http://farm8.staticflickr.com/7148/6709859653_f21034688f_q.jpg'
p334
aS'http://farm7.staticflickr.com/6031/6308644276_b547710068_q.jpg'
p335
aS'http://farm6.staticflickr.com/5244/5338151979_b3bc9e10d6_q.jpg'
p336
aS'http://farm7.staticflickr.com/6101/6308270545_b170f894f7_q.jpg'
p337
as(S'Nikon D300'
g4
(g6
S'\xe4V\xfa\xefkj\x7f?'
tRp338
tp339
(lp340
S'http://farm6.staticflickr.com/5171/5421126386_552eda819d_q.jpg'
p341
aS'http://farm8.staticflickr.com/7143/6621178411_e52b6ab043_q.jpg'
p342
aS'http://farm5.staticflickr.com/4057/4438517658_6dc8b1d639_q.jpg'
p343
aS'http://farm4.staticflickr.com/3304/4619684300_b75ef925d1_q.jpg'
p344
aS'http://farm4.staticflickr.com/3304/4595270745_64722658b6_q.jpg'
p345
aS'http://farm8.staticflickr.com/7144/6695766815_76f1fc4316_q.jpg'
p346
aS'http://farm3.staticflickr.com/2714/4500622806_5c5cd3c0c6_q.jpg'
p347
aS'http://farm7.staticflickr.com/6216/6246537367_b302eed1f2_q.jpg'
p348
aS'http://farm5.staticflickr.com/4087/5172486194_4cc3999cb9_q.jpg'
p349
aS'http://farm6.staticflickr.com/5271/6914362758_3824cbe7a0_q.jpg'
p350
as(S'Nikon D90'
g4
(g6
S'\xc8y\xe7\xe4\x169\x92?'
tRp351
tp352
(lp353
S'http://farm2.staticflickr.com/1322/5125676686_2953debb6e_q.jpg'
p354
aS'http://farm2.staticflickr.com/1315/5131495638_8a29623665_q.jpg'
p355
aS'http://farm5.staticflickr.com/4140/4929332578_483bb01ba9_q.jpg'
p356
aS'http://farm6.staticflickr.com/5108/5880394936_a165533916_q.jpg'
p357
aS'http://farm5.staticflickr.com/4074/4938087989_6aab6ba496_q.jpg'
p358
aS'http://farm6.staticflickr.com/5207/5295580685_6cf9f40564_q.jpg'
p359
aS'http://farm6.staticflickr.com/5314/5854278299_f90bd9c3d4_q.jpg'
p360
aS'http://farm8.staticflickr.com/7001/6445595687_ba9628128f_q.jpg'
p361
aS'http://farm8.staticflickr.com/7055/6851737203_44f61cddf7_q.jpg'
p362
aS'http://farm8.staticflickr.com/7071/7105582489_73a0aa9b74_q.jpg'
p363
as(S'Nikon D700'
g4
(g6
S'\x05\x0by\xf87\x9b\x90?'
tRp364
tp365
(lp366
S'http://farm5.staticflickr.com/4116/4882097239_d9e30a2c48_q.jpg'
p367
aS'http://farm7.staticflickr.com/6169/6166839745_e4a5da6e6b_q.jpg'
p368
aS'http://farm5.staticflickr.com/4077/4865731133_dde41231b7_q.jpg'
p369
aS'http://farm5.staticflickr.com/4084/4963965458_688ede87be_q.jpg'
p370
aS'http://farm2.staticflickr.com/1384/5164472892_6c33cd1922_q.jpg'
p371
aS'http://farm6.staticflickr.com/5028/5661697632_d1ff426de6_q.jpg'
p372
aS'http://farm5.staticflickr.com/4075/4812475974_60964780ff_q.jpg'
p373
aS'http://farm5.staticflickr.com/4130/5184313777_17c3c21fae_q.jpg'
p374
aS'http://farm6.staticflickr.com/5187/5848154940_34c0641107_q.jpg'
p375
aS'http://farm7.staticflickr.com/6137/5918618839_54edcb149d_q.jpg'
p376
assS'food'
p377
(dp378
(S'Canon EOS 20D'
g4
(g6
S'\xa6\xb5\x9b\xdb\x02^\x89?'
tRp379
tp380
(lp381
S'http://farm4.staticflickr.com/3230/2775416960_4ee50999f8_q.jpg'
p382
aS'http://farm4.staticflickr.com/3115/2728895433_849a0260bd_q.jpg'
p383
aS'http://farm2.staticflickr.com/1038/829017598_6769060a3b_q.jpg'
p384
aS'http://farm4.staticflickr.com/3509/3925817310_365191b8ab_q.jpg'
p385
aS'http://farm4.staticflickr.com/3130/2858522161_98f4460a9f_q.jpg'
p386
aS'http://farm4.staticflickr.com/3591/3546688248_b14688bf8b_q.jpg'
p387
aS'http://farm1.staticflickr.com/42/90910024_f1106f42cb_q.jpg'
p388
aS'http://farm1.staticflickr.com/249/528303253_0e17efb36d_q.jpg'
p389
aS'http://farm3.staticflickr.com/2137/3543124470_dda574f641_q.jpg'
p390
aS'http://farm5.staticflickr.com/4035/4696347410_3827d02681_q.jpg'
p391
as(S'Nikon D90'
g4
(g6
S'\xbf\x8f#\x1d$\xc4\x84?'
tRp392
tp393
(lp394
S'http://farm4.staticflickr.com/3401/3323690183_bc73d09375_q.jpg'
p395
aS'http://farm9.staticflickr.com/8150/7497500748_5f37df32aa_q.jpg'
p396
aS'http://farm5.staticflickr.com/4052/4300821306_406b297e13_q.jpg'
p397
aS'http://farm6.staticflickr.com/5214/5430539261_957f8f7d83_q.jpg'
p398
aS'http://farm6.staticflickr.com/5327/7112394633_6e9e29d145_q.jpg'
p399
aS'http://farm6.staticflickr.com/5284/5344607573_6b57282f4e_q.jpg'
p400
aS'http://farm5.staticflickr.com/4099/4890875722_e170b5c4be_q.jpg'
p401
aS'http://farm3.staticflickr.com/2431/4001405916_ac6a15a634_q.jpg'
p402
aS'http://farm6.staticflickr.com/5010/5377657167_e5d3acc8ac_q.jpg'
p403
aS'http://farm2.staticflickr.com/1238/4603933190_884da0dd76_q.jpg'
p404
as(S'Canon EOS 5D Mark II'
g4
(g6
S'\x852\xec*\xba\xd5\x94?'
tRp405
tp406
(lp407
S'http://farm3.staticflickr.com/2658/3959892920_555a5ed30d_q.jpg'
p408
aS'http://farm4.staticflickr.com/3411/4576258434_c2b1429334_q.jpg'
p409
aS'http://farm6.staticflickr.com/5084/5723444896_10a2072f41_q.jpg'
p410
aS'http://farm3.staticflickr.com/2714/4359138190_9e938be3c2_q.jpg'
p411
aS'http://farm4.staticflickr.com/3543/5839086074_f43ef23a7f_q.jpg'
p412
aS'http://farm9.staticflickr.com/8353/8274833739_f3f5f8e5c8_q.jpg'
p413
aS'http://farm9.staticflickr.com/8019/7674608596_d262ab15c8_q.jpg'
p414
aS'http://farm4.staticflickr.com/3619/3483331088_4684fdbcfb_q.jpg'
p415
aS'http://farm3.staticflickr.com/2778/4425185056_46124cf239_q.jpg'
p416
aS'http://farm5.staticflickr.com/4024/4288112752_8d40555348_q.jpg'
p417
as(S'Nikon D300'
g4
(g6
S'y\x9e\xcbv\x06\x91\x90?'
tRp418
tp419
(lp420
S'http://farm4.staticflickr.com/3425/3296185742_5fd893e1c7_q.jpg'
p421
aS'http://farm5.staticflickr.com/4148/4973896467_15eea09757_q.jpg'
p422
aS'http://farm6.staticflickr.com/5243/5311442510_5651a10d88_q.jpg'
p423
aS'http://farm4.staticflickr.com/3362/3495639773_4cf1a99552_q.jpg'
p424
aS'http://farm3.staticflickr.com/2127/2479825551_21c368b6c4_q.jpg'
p425
aS'http://farm8.staticflickr.com/7008/6505676005_a6de644629_q.jpg'
p426
aS'http://farm4.staticflickr.com/3612/3377481286_6ebd0d0985_q.jpg'
p427
aS'http://farm4.staticflickr.com/3612/3691527422_acc616d355_q.jpg'
p428
aS'http://farm3.staticflickr.com/2683/4295792226_1ec34e9fa5_q.jpg'
p429
aS'http://farm3.staticflickr.com/2564/3807333358_bf6151d589_q.jpg'
p430
as(S'Canon EOS 5D'
g4
(g6
S'P\xe9\xa0[9\xec\x92?'
tRp431
tp432
(lp433
S'http://farm3.staticflickr.com/2011/1879250288_95901bd6d4_q.jpg'
p434
aS'http://farm1.staticflickr.com/178/454981813_d9b168d6b4_q.jpg'
p435
aS'http://farm4.staticflickr.com/3138/2355516187_85b9247ae0_q.jpg'
p436
aS'http://farm9.staticflickr.com/8033/8029572187_bafa863bd7_q.jpg'
p437
aS'http://farm1.staticflickr.com/221/504791001_9e8b25b0f1_q.jpg'
p438
aS'http://farm1.staticflickr.com/92/205664580_92f43ee0d1_q.jpg'
p439
aS'http://farm2.staticflickr.com/1209/644702656_244c9ae5ba_q.jpg'
p440
aS'http://farm3.staticflickr.com/2413/1812187705_b233530f3e_q.jpg'
p441
aS'http://farm4.staticflickr.com/3542/3353496447_b61172c2c6_q.jpg'
p442
aS'http://farm2.staticflickr.com/1052/885785722_ac7f2dd3d3_q.jpg'
p443
as(S'Canon EOS Digital Rebel XT'
g4
(g6
S'\xc3\x85\xf8\xdb\x80\xb9\x8f?'
tRp444
tp445
(lp446
S'http://farm4.staticflickr.com/3094/3245408401_ac25fa2148_q.jpg'
p447
aS'http://farm4.staticflickr.com/3558/3362171123_622f6f9c5a_q.jpg'
p448
aS'http://farm4.staticflickr.com/3226/3100334166_8e2bb53da6_q.jpg'
p449
aS'http://farm3.staticflickr.com/2228/3577298505_4a1164db2d_q.jpg'
p450
aS'http://farm4.staticflickr.com/3640/3424396006_9a4f58e2f5_q.jpg'
p451
aS'http://farm4.staticflickr.com/3134/3241370218_9daaf7b697_q.jpg'
p452
aS'http://farm4.staticflickr.com/3393/3227865079_13b04461a9_q.jpg'
p453
aS'http://farm3.staticflickr.com/2107/2184722156_fd76e00519_q.jpg'
p454
aS'http://farm3.staticflickr.com/2372/1806684507_6b42c46a42_q.jpg'
p455
aS'http://farm4.staticflickr.com/3272/3076205741_3baa077883_q.jpg'
p456
as(S'Canon EOS 50D'
g4
(g6
S'^\xf3\xd3\xc7\xb2\xfe\x85?'
tRp457
tp458
(lp459
S'http://farm5.staticflickr.com/4048/4702245780_31198930a5_q.jpg'
p460
aS'http://farm6.staticflickr.com/5098/5435964406_bfbda22ae2_q.jpg'
p461
aS'http://farm5.staticflickr.com/4035/4223554509_7b486534cd_q.jpg'
p462
aS'http://farm5.staticflickr.com/4062/4432902052_42d311aa3e_q.jpg'
p463
aS'http://farm6.staticflickr.com/5054/5470280601_25af84e4f7_q.jpg'
p464
aS'http://farm8.staticflickr.com/7027/6440703929_867f9f1804_q.jpg'
p465
aS'http://farm4.staticflickr.com/3585/3570005454_e9f88505f8_q.jpg'
p466
aS'http://farm4.staticflickr.com/3548/3690682655_ab74bd89a1_q.jpg'
p467
aS'http://farm5.staticflickr.com/4071/4585712049_3d2e4f3a10_q.jpg'
p468
aS'http://farm6.staticflickr.com/5032/5846658416_7e4ea7ed0e_q.jpg'
p469
as(S'Nikon D50'
g4
(g6
S'\xa4"\xe5\xd5\xf3\x8d\x8d?'
tRp470
tp471
(lp472
S'http://farm1.staticflickr.com/30/373770459_193c89fb37_q.jpg'
p473
aS'http://farm1.staticflickr.com/153/352543011_a5a18ab03a_q.jpg'
p474
aS'http://farm1.staticflickr.com/60/189890016_b71312812c_q.jpg'
p475
aS'http://farm1.staticflickr.com/60/191531708_ea20ca1a44_q.jpg'
p476
aS'http://farm3.staticflickr.com/2296/1955628306_1cd0f41f79_q.jpg'
p477
aS'http://farm6.staticflickr.com/5167/5234381535_a37ec472c3_q.jpg'
p478
aS'http://farm4.staticflickr.com/3147/2440051733_7d54e4f480_q.jpg'
p479
aS'http://farm4.staticflickr.com/3024/2596155129_fa6fbfc9c2_q.jpg'
p480
aS'http://farm4.staticflickr.com/3095/2435555395_d9cf848337_q.jpg'
p481
aS'http://farm6.staticflickr.com/5147/5612052692_2bb06ecbc4_q.jpg'
p482
as(S'Canon EOS-1D Mark IV'
g4
(g6
S'\x0ev/\xd25]\x84?'
tRp483
tp484
(lp485
S'http://farm4.staticflickr.com/3150/5773185416_e16abfc556_q.jpg'
p486
aS'http://farm5.staticflickr.com/4116/4887785243_eeac22ea84_q.jpg'
p487
as(S'Canon EOS Digital Rebel XTi'
g4
(g6
S'\x19\x1dO\xe7,\xbe\x90?'
tRp488
tp489
(lp490
S'http://farm4.staticflickr.com/3145/2858885013_521c7f9678_q.jpg'
p491
aS'http://farm8.staticflickr.com/7142/6546800733_c1bcd45aaf_q.jpg'
p492
aS'http://farm8.staticflickr.com/7005/6546920743_60e9ff5d7f_q.jpg'
p493
aS'http://farm3.staticflickr.com/2294/2251863367_8e13a124bd_q.jpg'
p494
aS'http://farm1.staticflickr.com/222/484047952_b741a5699b_q.jpg'
p495
aS'http://farm3.staticflickr.com/2327/1904633630_3b646c54ba_q.jpg'
p496
aS'http://farm4.staticflickr.com/3155/2649835330_b96bcb558e_q.jpg'
p497
aS'http://farm8.staticflickr.com/7149/6546903879_4764494abf_q.jpg'
p498
aS'http://farm3.staticflickr.com/2115/2449374944_fd310a3ca3_q.jpg'
p499
aS'http://farm4.staticflickr.com/3192/2420306655_353d32be83_q.jpg'
p500
assS'travel'
p501
(dp502
(S'Nikon D300'
g4
(g6
S'\xb9,V\xfbHi\x96?'
tRp503
tp504
(lp505
S'http://farm5.staticflickr.com/4087/5172486194_4cc3999cb9_q.jpg'
p506
aS'http://farm6.staticflickr.com/5323/7222284384_10d64ab3c2_q.jpg'
p507
aS'http://farm6.staticflickr.com/5061/5584613304_841ae30681_q.jpg'
p508
aS'http://farm4.staticflickr.com/3342/3475830832_a081706f39_q.jpg'
p509
aS'http://farm3.staticflickr.com/2375/3537526885_e30bb4849b_q.jpg'
p510
aS'http://farm3.staticflickr.com/2475/3796856361_27b47df241_q.jpg'
p511
aS'http://farm3.staticflickr.com/2642/3967090398_e44da30b4e_q.jpg'
p512
aS'http://farm4.staticflickr.com/3650/3490185235_4eac173b57_q.jpg'
p513
aS'http://farm6.staticflickr.com/5171/5421126386_552eda819d_q.jpg'
p514
aS'http://farm5.staticflickr.com/4099/5413219165_ed5bb58366_q.jpg'
p515
as(S'Nikon D700'
g4
(g6
S'6\xbav\xbb)`\xb1?'
tRp516
tp517
(lp518
S'http://farm5.staticflickr.com/4116/4882097239_d9e30a2c48_q.jpg'
p519
aS'http://farm9.staticflickr.com/8322/8032195208_a366cf6a63_q.jpg'
p520
aS'http://farm5.staticflickr.com/4077/4865731133_dde41231b7_q.jpg'
p521
aS'http://farm5.staticflickr.com/4142/4929128609_d4f73efea4_q.jpg'
p522
aS'http://farm4.staticflickr.com/3380/3597786267_56bd440c90_q.jpg'
p523
aS'http://farm3.staticflickr.com/2505/3842778696_5a328a01a7_q.jpg'
p524
aS'http://farm2.staticflickr.com/1264/5146245870_9d0e8fb4df_q.jpg'
p525
aS'http://farm5.staticflickr.com/4084/4963965458_688ede87be_q.jpg'
p526
aS'http://farm5.staticflickr.com/4071/4322501772_b7656c560a_q.jpg'
p527
aS'http://farm9.staticflickr.com/8162/7612589054_43b7b646d1_q.jpg'
p528
as(S'Nikon D70s'
g4
(g6
S')z\xc7\xc5v\xad\x87?'
tRp529
tp530
(lp531
S'http://farm4.staticflickr.com/3650/3637075385_2c58bfbc5b_q.jpg'
p532
aS'http://farm3.staticflickr.com/2660/4076963533_554a40d136_q.jpg'
p533
aS'http://farm3.staticflickr.com/2209/3652811543_83919d1201_q.jpg'
p534
aS'http://farm3.staticflickr.com/2519/3703680567_7ce7f0e38a_q.jpg'
p535
aS'http://farm3.staticflickr.com/2299/3529694787_975decbea9_q.jpg'
p536
as(S'Canon PowerShot A610'
g4
(g6
S'\xa7\xd0P\x0c\xd2\xea\x82?'
tRp537
tp538
(lp539
S'http://farm4.staticflickr.com/3347/3545796041_6eb339d836_q.jpg'
p540
aS'http://farm3.staticflickr.com/2508/3720353467_c28d4ec140_q.jpg'
p541
aS'http://farm3.staticflickr.com/2644/4059178954_ec97586ef8_q.jpg'
p542
aS'http://farm4.staticflickr.com/3318/4574577687_acd48c06c4_q.jpg'
p543
aS'http://farm4.staticflickr.com/3546/3450663646_6fcdcebdca_q.jpg'
p544
aS'http://farm3.staticflickr.com/2470/3802683555_8f5da70e9d_q.jpg'
p545
aS'http://farm5.staticflickr.com/4072/4714779148_0c25cc52f0_q.jpg'
p546
aS'http://farm9.staticflickr.com/8189/8086708462_d81b4a5de7_q.jpg'
p547
aS'http://farm4.staticflickr.com/3039/3975345732_df838de12a_q.jpg'
p548
aS'http://farm4.staticflickr.com/3302/3504974853_5752a4b457_q.jpg'
p549
as(S'Canon EOS 5D'
g4
(g6
S'\x10\xc7\xc1\x8c\xe5\xbfz?'
tRp550
tp551
(lp552
S'http://farm4.staticflickr.com/3533/3240896769_a0437cdf9d_q.jpg'
p553
aS'http://farm5.staticflickr.com/4057/4318899312_9c62cb98fb_q.jpg'
p554
aS'http://farm4.staticflickr.com/3558/3412288518_6bc620f844_q.jpg'
p555
aS'http://farm4.staticflickr.com/3506/3738269859_b58f3bc39a_q.jpg'
p556
aS'http://farm3.staticflickr.com/2456/3977498042_008b4b4d4e_q.jpg'
p557
as(S'Nikon D90'
g4
(g6
S'L\xc2\x81t\xfc\xdc\x93?'
tRp558
tp559
(lp560
S'http://farm5.staticflickr.com/4143/4923613961_3de79bef7c_q.jpg'
p561
aS'http://farm5.staticflickr.com/4116/4859208681_fb9fd9934c_q.jpg'
p562
aS'http://farm4.staticflickr.com/3397/3241293053_2530cfa66d_q.jpg'
p563
aS'http://farm8.staticflickr.com/7071/7105582489_73a0aa9b74_q.jpg'
p564
aS'http://farm5.staticflickr.com/4147/5222837199_4dfb05713f_q.jpg'
p565
aS'http://farm5.staticflickr.com/4074/4938087989_6aab6ba496_q.jpg'
p566
aS'http://farm5.staticflickr.com/4082/4757432550_6c744b77ee_q.jpg'
p567
aS'http://farm3.staticflickr.com/2520/4149868983_23da1bd580_q.jpg'
p568
aS'http://farm5.staticflickr.com/4134/4815218552_831ae73507_q.jpg'
p569
aS'http://farm3.staticflickr.com/2688/4397116707_6019b3ef22_q.jpg'
p570
as(S'Canon PowerShot G12'
g4
(g6
S'7\xb7\xd5\x08[\xd7x?'
tRp571
tp572
(lp573
S'http://farm9.staticflickr.com/8008/7473387506_533d2d39db_q.jpg'
p574
aS'http://farm6.staticflickr.com/5263/5676687358_cc64a616e2_q.jpg'
p575
aS'http://farm8.staticflickr.com/7225/6883610662_69815b7d5f_q.jpg'
p576
aS'http://farm6.staticflickr.com/5018/5460432193_822e8f44aa_q.jpg'
p577
aS'http://farm9.staticflickr.com/8172/7907272662_a7b4740919_q.jpg'
p578
aS'http://farm7.staticflickr.com/6116/6364204955_d94c5b7205_q.jpg'
p579
aS'http://farm9.staticflickr.com/8065/8190387989_c27f595945_q.jpg'
p580
aS'http://farm8.staticflickr.com/7025/6560441791_88a2a9084e_q.jpg'
p581
aS'http://farm8.staticflickr.com/7236/7321463436_a2e6e2608d_q.jpg'
p582
aS'http://farm7.staticflickr.com/6069/6038687947_f421616dc3_q.jpg'
p583
as(S'Canon EOS 5D Mark II'
g4
(g6
S'\xdfP\xc02\x94W\xb0?'
tRp584
tp585
(lp586
S'http://farm4.staticflickr.com/3300/3551510533_a2f94475c6_q.jpg'
p587
aS'http://farm4.staticflickr.com/3600/3578457069_39b99bc316_q.jpg'
p588
aS'http://farm3.staticflickr.com/2547/3754385561_a5afa431b3_q.jpg'
p589
aS'http://farm5.staticflickr.com/4002/4670017326_33f6ca5da2_q.jpg'
p590
aS'http://farm5.staticflickr.com/4055/4564780513_13a2c65e07_q.jpg'
p591
aS'http://farm5.staticflickr.com/4123/4869240902_727d95717b_q.jpg'
p592
aS'http://farm6.staticflickr.com/5048/5260155417_8c3d97a9b1_q.jpg'
p593
aS'http://farm5.staticflickr.com/4040/4583996002_5ac37f41c4_q.jpg'
p594
aS'http://farm5.staticflickr.com/4145/4997428776_b4071ae9c9_q.jpg'
p595
aS'http://farm2.staticflickr.com/1085/4721202445_8e593e62e0_q.jpg'
p596
as(S'Canon EOS 50D'
g4
(g6
S'kjv\x83\xa6\xdb\x84?'
tRp597
tp598
(lp599
S'http://farm3.staticflickr.com/2525/4159912348_1db05ed6fa_q.jpg'
p600
aS'http://farm4.staticflickr.com/3633/3607919081_1ec159d95a_q.jpg'
p601
aS'http://farm5.staticflickr.com/4012/4536902551_d46509bb42_q.jpg'
p602
aS'http://farm6.staticflickr.com/5282/5260067001_9a19b07b38_q.jpg'
p603
aS'http://farm4.staticflickr.com/3395/3509099011_4c9d598549_q.jpg'
p604
aS'http://farm4.staticflickr.com/3555/3344461479_9816bba46b_q.jpg'
p605
aS'http://farm4.staticflickr.com/3421/3772378193_49da88c78f_q.jpg'
p606
aS'http://farm3.staticflickr.com/2626/3747307698_d6e45c5d30_q.jpg'
p607
aS'http://farm6.staticflickr.com/5085/5323011079_074615ae81_q.jpg'
p608
aS'http://farm4.staticflickr.com/3577/3638154970_9f443f26eb_q.jpg'
p609
as(S'Canon EOS 7D'
g4
(g6
S'\x03\x02Xl\xd5\x1a\x8d?'
tRp610
tp611
(lp612
S'http://farm9.staticflickr.com/8066/8190677086_5de4d83489_q.jpg'
p613
aS'http://farm8.staticflickr.com/7195/6936821869_e43c1f361b_q.jpg'
p614
aS'http://farm7.staticflickr.com/6221/6282856697_d24f92618d_q.jpg'
p615
aS'http://farm8.staticflickr.com/7167/6811360091_c063f50b06_q.jpg'
p616
aS'http://farm3.staticflickr.com/2714/4394940278_b4f7a1e055_q.jpg'
p617
aS'http://farm8.staticflickr.com/7005/6409017089_4bf10760eb_q.jpg'
p618
aS'http://farm8.staticflickr.com/7164/6515250081_3fbf5740dc_q.jpg'
p619
aS'http://farm6.staticflickr.com/5289/5326036553_b0c5b30120_q.jpg'
p620
aS'http://farm9.staticflickr.com/8473/8141341249_865bd3dd75_q.jpg'
p621
aS'http://farm8.staticflickr.com/7143/6688768203_eeb73795c0_q.jpg'
p622
assS'people'
p623
(dp624
(S'Canon EOS 5D'
g4
(g6
S'\xbd\xe5\xfc\x99\x1a\xb5\x92?'
tRp625
tp626
(lp627
S'http://farm4.staticflickr.com/3609/3321513042_3f0ed73035_q.jpg'
p628
aS'http://farm4.staticflickr.com/3641/3333796130_2fd3fe7ee9_q.jpg'
p629
aS'http://farm1.staticflickr.com/150/411888876_0fa31e2fa6_q.jpg'
p630
aS'http://farm1.staticflickr.com/191/489131360_fd314bb472_q.jpg'
p631
aS'http://farm4.staticflickr.com/3468/3371071906_648982f56c_q.jpg'
p632
aS'http://farm4.staticflickr.com/3008/2886512739_6a1abb97b9_q.jpg'
p633
aS'http://farm4.staticflickr.com/3055/2813497743_4ac79f1717_q.jpg'
p634
aS'http://farm2.staticflickr.com/1300/1123295341_31d097a281_q.jpg'
p635
aS'http://farm4.staticflickr.com/3435/3253066691_d0f5c71ee0_q.jpg'
p636
aS'http://farm4.staticflickr.com/3323/3233397451_3e62827542_q.jpg'
p637
as(S'Canon EOS 30D'
g4
(g6
S'Fu\xe0%~\xc1\x8c?'
tRp638
tp639
(lp640
S'http://farm2.staticflickr.com/1103/3166940058_88278b2627_q.jpg'
p641
aS'http://farm1.staticflickr.com/225/503633282_7c0b46356a_q.jpg'
p642
aS'http://farm3.staticflickr.com/2029/2124978385_2ca77c66d3_q.jpg'
p643
aS'http://farm1.staticflickr.com/81/237994176_e4ced20dae_q.jpg'
p644
aS'http://farm4.staticflickr.com/3255/2538850617_0ddb9ab3fd_q.jpg'
p645
aS'http://farm1.staticflickr.com/81/271266950_f1c15825c8_q.jpg'
p646
aS'http://farm3.staticflickr.com/2031/2112159640_02886f7e11_q.jpg'
p647
aS'http://farm3.staticflickr.com/2161/1874274054_26f628dd44_q.jpg'
p648
aS'http://farm3.staticflickr.com/2308/1601434974_f28ea2f5d0_q.jpg'
p649
aS'http://farm3.staticflickr.com/2062/2291379248_6eb36f4309_q.jpg'
p650
as(S'Canon EOS 50D'
g4
(g6
S'}I\xe4\xe9\x92\xb0\x91?'
tRp651
tp652
(lp653
S'http://farm3.staticflickr.com/2561/4133145308_e7165d0fcf_q.jpg'
p654
aS'http://farm4.staticflickr.com/3581/3551738090_149b53eed4_q.jpg'
p655
aS'http://farm4.staticflickr.com/3644/3447700408_f38125326d_q.jpg'
p656
aS'http://farm5.staticflickr.com/4085/5058396477_3180b1f9cf_q.jpg'
p657
aS'http://farm6.staticflickr.com/5085/5323011079_074615ae81_q.jpg'
p658
aS'http://farm4.staticflickr.com/3577/3638154970_9f443f26eb_q.jpg'
p659
aS'http://farm4.staticflickr.com/3363/3638428284_5a90a7f952_q.jpg'
p660
aS'http://farm4.staticflickr.com/3566/3603281126_3c0270ae8b_q.jpg'
p661
aS'http://farm5.staticflickr.com/4128/5211179869_27bcdeefe0_q.jpg'
p662
aS'http://farm5.staticflickr.com/4154/5000585207_2234bd53aa_q.jpg'
p663
as(S'Nikon D700'
g4
(g6
S'L\xf2\x90\xa6\xde\xe9\xa9?'
tRp664
tp665
(lp666
S'http://farm4.staticflickr.com/3658/3496855330_6de412f4b9_q.jpg'
p667
aS'http://farm4.staticflickr.com/3310/3635319152_da7b0459ec_q.jpg'
p668
aS'http://farm3.staticflickr.com/2505/3842778696_5a328a01a7_q.jpg'
p669
aS'http://farm5.staticflickr.com/4084/4963965458_688ede87be_q.jpg'
p670
aS'http://farm4.staticflickr.com/3419/3316063466_a5d833bc0f_q.jpg'
p671
aS'http://farm4.staticflickr.com/3487/3730902239_53570f2cdb_q.jpg'
p672
aS'http://farm4.staticflickr.com/3546/3374513049_1489915952_q.jpg'
p673
aS'http://farm3.staticflickr.com/2579/4050837423_859b51e014_q.jpg'
p674
aS'http://farm4.staticflickr.com/3111/3104868544_3a41ff5653_q.jpg'
p675
aS'http://farm4.staticflickr.com/3090/3097067609_ce1d93bbb5_q.jpg'
p676
as(S'Canon EOS 7D'
g4
(g6
S'F\x08\x99L\x08~\x89?'
tRp677
tp678
(lp679
S'http://farm3.staticflickr.com/2698/5845973085_516a98f4d7_q.jpg'
p680
aS'http://farm5.staticflickr.com/4081/4771478926_517c4e5982_q.jpg'
p681
aS'http://farm9.staticflickr.com/8066/8190677086_5de4d83489_q.jpg'
p682
aS'http://farm8.staticflickr.com/7195/6936821869_e43c1f361b_q.jpg'
p683
aS'http://farm3.staticflickr.com/2752/4426288835_9f97bf01fc_q.jpg'
p684
aS'http://farm7.staticflickr.com/6221/6282856697_d24f92618d_q.jpg'
p685
aS'http://farm9.staticflickr.com/8490/8195251185_a479f6f515_q.jpg'
p686
aS'http://farm3.staticflickr.com/2714/4394940278_b4f7a1e055_q.jpg'
p687
aS'http://farm2.staticflickr.com/1151/5117718076_6d4fc15463_q.jpg'
p688
aS'http://farm5.staticflickr.com/4068/4530662749_311cd4c6f8_q.jpg'
p689
as(S'Canon EOS 40D'
g4
(g6
S'>a\x19G\xdc\x03\x84?'
tRp690
tp691
(lp692
S'http://farm4.staticflickr.com/3074/2799403722_a310cc313e_q.jpg'
p693
aS'http://farm4.staticflickr.com/3037/2640894515_19e008eaec_q.jpg'
p694
aS'http://farm4.staticflickr.com/3233/2734516165_278f83beb1_q.jpg'
p695
aS'http://farm4.staticflickr.com/3317/3618277091_81b324aaf0_q.jpg'
p696
aS'http://farm4.staticflickr.com/3262/2548248781_ba329e4267_q.jpg'
p697
aS'http://farm3.staticflickr.com/2759/4395497256_d3bac09367_q.jpg'
p698
as(S'Nikon D80'
g4
(g6
S"\xbc\xc7\xaa'\x03n\x8a?"
tRp699
tp700
(lp701
S'http://farm2.staticflickr.com/1365/1060151652_bacb03ef2b_q.jpg'
p702
aS'http://farm3.staticflickr.com/2495/3858677949_20e4e3f7d5_q.jpg'
p703
aS'http://farm3.staticflickr.com/2094/2226394290_e3831aed7c_q.jpg'
p704
aS'http://farm3.staticflickr.com/2525/3735363572_84a934d825_q.jpg'
p705
aS'http://farm4.staticflickr.com/3437/3795665428_fe07dfedce_q.jpg'
p706
aS'http://farm3.staticflickr.com/2543/3757588379_7ceb7aa04e_q.jpg'
p707
aS'http://farm6.staticflickr.com/5046/5344950448_ff33fa1b46_q.jpg'
p708
aS'http://farm3.staticflickr.com/2675/3761810608_2d88aff5fc_q.jpg'
p709
aS'http://farm3.staticflickr.com/2428/3805195496_f754366820_q.jpg'
p710
aS'http://farm4.staticflickr.com/3496/3178735627_76e181f05c_q.jpg'
p711
as(S'Nikon D70s'
g4
(g6
S'\x11F\xf0\xc1\xa6\x0b\x88?'
tRp712
tp713
(lp714
S'http://farm2.staticflickr.com/1237/1313679743_a9ec7f2870_q.jpg'
p715
aS'http://farm2.staticflickr.com/1341/542521483_8f4632f02a_q.jpg'
p716
aS'http://farm1.staticflickr.com/103/307534324_17717cd952_q.jpg'
p717
aS'http://farm1.staticflickr.com/83/268882271_5cd3ac3ba1_q.jpg'
p718
aS'http://farm3.staticflickr.com/2728/4322574024_5afe7362db_q.jpg'
p719
aS'http://farm5.staticflickr.com/4045/4620269512_2990c49472_q.jpg'
p720
as(S'Nikon D90'
g4
(g6
S'\xc5^\x17\x8c\xab\xbc\x8e?'
tRp721
tp722
(lp723
S'http://farm5.staticflickr.com/4003/4702708910_3191d9b9fa_q.jpg'
p724
aS'http://farm6.staticflickr.com/5164/5253739023_faac96010d_q.jpg'
p725
aS'http://farm5.staticflickr.com/4098/4763291528_daff5af148_q.jpg'
p726
aS'http://farm2.staticflickr.com/1315/5131495638_8a29623665_q.jpg'
p727
aS'http://farm5.staticflickr.com/4011/4407660745_6f979a02d0_q.jpg'
p728
aS'http://farm5.staticflickr.com/4098/4829428379_1c71cc88e2_q.jpg'
p729
aS'http://farm5.staticflickr.com/4069/4654914993_145c405f8e_q.jpg'
p730
aS'http://farm5.staticflickr.com/4049/4407796210_9bc73b8582_q.jpg'
p731
aS'http://farm3.staticflickr.com/2520/4149868983_23da1bd580_q.jpg'
p732
aS'http://farm6.staticflickr.com/5133/5480601290_a4a8ccab0a_q.jpg'
p733
as(S'Canon EOS 5D Mark II'
g4
(g6
S'A\x08j\x90\xf3\xc3\x9e?'
tRp734
tp735
(lp736
S'http://farm5.staticflickr.com/4106/5016757293_4eb3371fa6_q.jpg'
p737
aS'http://farm7.staticflickr.com/6198/6071075623_aab3ae3b57_q.jpg'
p738
aS'http://farm5.staticflickr.com/4116/4901937167_d0923d68cd_q.jpg'
p739
aS'http://farm7.staticflickr.com/6236/6357381361_cab0a3a412_q.jpg'
p740
aS'http://farm7.staticflickr.com/6099/6210568442_2701156861_q.jpg'
p741
aS'http://farm6.staticflickr.com/5049/5282677229_66365f5a65_q.jpg'
p742
aS'http://farm4.staticflickr.com/3085/3213180982_e847d48b2a_q.jpg'
p743
aS'http://farm5.staticflickr.com/4066/4410000599_87acf39f88_q.jpg'
p744
aS'http://farm3.staticflickr.com/2693/4057142935_b81800d68c_q.jpg'
p745
aS'http://farm7.staticflickr.com/6157/6199413086_896d976685_q.jpg'
p746
assS'cat'
p747
(dp748
(S'Nikon D200'
g4
(g6
S't\xfc&\x08 #\x88?'
tRp749
tp750
(lp751
S'http://farm1.staticflickr.com/82/234368501_a946183032_q.jpg'
p752
aS'http://farm1.staticflickr.com/220/512450093_7717fb8ce8_q.jpg'
p753
aS'http://farm1.staticflickr.com/87/234218679_b3b783a217_q.jpg'
p754
aS'http://farm1.staticflickr.com/151/376918685_f1b7e7363a_q.jpg'
p755
aS'http://farm1.staticflickr.com/113/272407160_4d87ca9a68_q.jpg'
p756
aS'http://farm1.staticflickr.com/211/472331456_46326901b1_q.jpg'
p757
aS'http://farm4.staticflickr.com/3642/3632681654_b6822367af_q.jpg'
p758
aS'http://farm3.staticflickr.com/2441/3770180051_bfee1c464c_q.jpg'
p759
aS'http://farm1.staticflickr.com/87/231141256_3e361e28e5_q.jpg'
p760
aS'http://farm4.staticflickr.com/3235/2505481253_04ef9cf929_q.jpg'
p761
as(S'Canon EOS 5D'
g4
(g6
S'5\xa8\xf5\xfa*\xb5\x95?'
tRp762
tp763
(lp764
S'http://farm4.staticflickr.com/3415/3180053560_3a9e326ba3_q.jpg'
p765
aS'http://farm1.staticflickr.com/51/169490999_c8dde6b3cc_q.jpg'
p766
aS'http://farm1.staticflickr.com/29/90655247_902db6beef_q.jpg'
p767
aS'http://farm1.staticflickr.com/114/315606314_7eb7aeb3db_q.jpg'
p768
aS'http://farm4.staticflickr.com/3179/2967520259_9d810a8c0a_q.jpg'
p769
aS'http://farm4.staticflickr.com/3616/3404663426_a8c6525f25_q.jpg'
p770
aS'http://farm1.staticflickr.com/147/436382917_5450a9c506_q.jpg'
p771
aS'http://farm1.staticflickr.com/60/272439356_11eb11d068_q.jpg'
p772
aS'http://farm3.staticflickr.com/2153/3530952197_fb32ff63c9_q.jpg'
p773
aS'http://farm4.staticflickr.com/3243/2671256434_d5eb2e40d4_q.jpg'
p774
as(S'Nikon D70'
g4
(g6
S'\xf7X]\x1eH\x9a\x9a?'
tRp775
tp776
(lp777
S'http://farm1.staticflickr.com/11/17369470_19c12d396f_q.jpg'
p778
aS'http://farm1.staticflickr.com/35/70471485_a20c515d78_q.jpg'
p779
aS'http://farm1.staticflickr.com/11/16227947_e6abfda0df_q.jpg'
p780
aS'http://farm1.staticflickr.com/23/26292821_66ea4626ce_q.jpg'
p781
aS'http://farm1.staticflickr.com/22/31922425_17c4894423_q.jpg'
p782
aS'http://farm2.staticflickr.com/1168/593200774_1845373e9a_q.jpg'
p783
aS'http://farm1.staticflickr.com/27/37606178_cf8a50fee9_q.jpg'
p784
aS'http://farm1.staticflickr.com/22/37329298_c85fc69658_q.jpg'
p785
aS'http://farm1.staticflickr.com/112/311285917_ac31adb80a_q.jpg'
p786
aS'http://farm1.staticflickr.com/21/32599394_0695e2a50e_q.jpg'
p787
as(S'Canon EOS 20D'
g4
(g6
S'\x13\xbc\xdd\xd2w\xe9\x8a?'
tRp788
tp789
(lp790
S'http://farm1.staticflickr.com/144/330701382_2a1c617105_q.jpg'
p791
aS'http://farm1.staticflickr.com/34/122892386_6cd36dc0c4_q.jpg'
p792
aS'http://farm2.staticflickr.com/1339/1075777403_3ffda36845_q.jpg'
p793
aS'http://farm1.staticflickr.com/94/205751737_854ae794ca_q.jpg'
p794
aS'http://farm1.staticflickr.com/44/132425778_714cd39fb5_q.jpg'
p795
aS'http://farm1.staticflickr.com/79/217915295_2ca9852da7_q.jpg'
p796
aS'http://farm1.staticflickr.com/99/290365468_77d5860917_q.jpg'
p797
aS'http://farm1.staticflickr.com/19/22916257_e041470c12_q.jpg'
p798
aS'http://farm2.staticflickr.com/1308/1338510027_ac72c78df2_q.jpg'
p799
aS'http://farm1.staticflickr.com/189/497612202_86e7ff094f_q.jpg'
p800
as(S'Canon EOS 40D'
g4
(g6
S'\xd7\xcf9\xa6\xa1\xdc\x95?'
tRp801
tp802
(lp803
S'http://farm3.staticflickr.com/2122/3532887307_62a4706fac_q.jpg'
p804
aS'http://farm4.staticflickr.com/3045/2954325338_8a74a9c652_q.jpg'
p805
aS'http://farm3.staticflickr.com/2287/2168187456_c8303e2f37_q.jpg'
p806
aS'http://farm4.staticflickr.com/3549/3331339776_3e61fe1caa_q.jpg'
p807
aS'http://farm3.staticflickr.com/2063/2310553300_e82c55a5f6_q.jpg'
p808
aS'http://farm3.staticflickr.com/2235/2192001497_02a0b21f26_q.jpg'
p809
aS'http://farm4.staticflickr.com/3325/3415798034_94c1cb0692_q.jpg'
p810
aS'http://farm3.staticflickr.com/2772/4351109568_4700cd7e27_q.jpg'
p811
aS'http://farm2.staticflickr.com/1170/5098888565_1bcdb2aee3_q.jpg'
p812
aS'http://farm4.staticflickr.com/3088/2837355370_cc0a7ff1ff_q.jpg'
p813
as(S'Canon EOS 5D Mark II'
g4
(g6
S',a\xd9\xa9ym\x93?'
tRp814
tp815
(lp816
S'http://farm8.staticflickr.com/7171/6414053739_1297921b73_q.jpg'
p817
aS'http://farm3.staticflickr.com/2744/4225101030_d63877304a_q.jpg'
p818
aS'http://farm4.staticflickr.com/3537/3457329995_ed8e47f46e_q.jpg'
p819
aS'http://farm7.staticflickr.com/6046/6405325917_718414c995_q.jpg'
p820
aS'http://farm8.staticflickr.com/7023/6418423677_450636fc04_q.jpg'
p821
aS'http://farm7.staticflickr.com/6151/6176283730_e04d1101aa_q.jpg'
p822
aS'http://farm6.staticflickr.com/5467/6922432242_66526a22d0_q.jpg'
p823
aS'http://farm6.staticflickr.com/5344/7068513787_0a0f0a7730_q.jpg'
p824
aS'http://farm8.staticflickr.com/7067/6920088879_bc9dafe5df_q.jpg'
p825
aS'http://farm8.staticflickr.com/7131/7822799288_42792f8e4f_q.jpg'
p826
as(S'Nikon D300'
g4
(g6
S'\xfb\x1ae\x7f\xd1\xaa\x8b?'
tRp827
tp828
(lp829
S'http://farm4.staticflickr.com/3169/2845838787_4467b2e02b_q.jpg'
p830
aS'http://farm4.staticflickr.com/3013/2844515446_943155e700_q.jpg'
p831
aS'http://farm4.staticflickr.com/3274/2768722606_1085889cf0_q.jpg'
p832
aS'http://farm3.staticflickr.com/2284/2531409306_877bdcf1df_q.jpg'
p833
aS'http://farm4.staticflickr.com/3326/3237881478_1acd7f99e6_q.jpg'
p834
aS'http://farm3.staticflickr.com/2530/4013803176_d3014b5027_q.jpg'
p835
aS'http://farm3.staticflickr.com/2594/3906654611_541d59f6d7_q.jpg'
p836
aS'http://farm4.staticflickr.com/3032/2844012888_27977fdbd5_q.jpg'
p837
aS'http://farm4.staticflickr.com/3394/3580361025_74d37fa27c_q.jpg'
p838
aS'http://farm4.staticflickr.com/3333/3668709029_6cba2e95bc_q.jpg'
p839
as(S'Canon EOS 30D'
g4
(g6
S'[\x17\xa2\x84\x88v\x89?'
tRp840
tp841
(lp842
S'http://farm3.staticflickr.com/2340/2089504883_863fb11b0a_q.jpg'
p843
aS'http://farm2.staticflickr.com/1352/1093249228_9cfdce9b84_q.jpg'
p844
aS'http://farm3.staticflickr.com/2351/2059143917_519699b89a_q.jpg'
p845
aS'http://farm5.staticflickr.com/4135/4915974911_3f404e4d6b_q.jpg'
p846
aS'http://farm2.staticflickr.com/1424/558211746_bf95e2edff_q.jpg'
p847
as(S'Canon EOS-1D Mark IV'
g4
(g6
S'\x89B\xfe\xa8\x04\xda\x84?'
tRp848
tp849
(lp850
S'http://farm6.staticflickr.com/5253/5510159204_5b24de0cb3_q.jpg'
p851
aS'http://farm6.staticflickr.com/5089/5287436585_ce631d8746_q.jpg'
p852
aS'http://farm6.staticflickr.com/5087/5360626866_682a242944_q.jpg'
p853
aS'http://farm6.staticflickr.com/5162/5307061134_7ca4c0308e_q.jpg'
p854
as(S'Nikon D70s'
g4
(g6
S'i\x7fZ\xabh5\x8a?'
tRp855
tp856
(lp857
S'http://farm1.staticflickr.com/92/263203091_7a5006fc75_q.jpg'
p858
aS'http://farm1.staticflickr.com/137/319913934_6d82915c11_q.jpg'
p859
aS'http://farm1.staticflickr.com/26/62152201_24f8ef0b63_q.jpg'
p860
aS'http://farm1.staticflickr.com/185/368074494_a6150bef58_q.jpg'
p861
aS'http://farm5.staticflickr.com/4032/4592361218_17c88e22ef_q.jpg'
p862
aS'http://farm1.staticflickr.com/162/396451935_89206f09e0_q.jpg'
p863
aS'http://farm1.staticflickr.com/177/382794427_a6852402f3_q.jpg'
p864
aS'http://farm1.staticflickr.com/41/80032093_965f9f9707_q.jpg'
p865
aS'http://farm1.staticflickr.com/26/60699814_3b88fd33e3_q.jpg'
p866
aS'http://farm2.staticflickr.com/1392/580401331_ac6cdfc0b8_q.jpg'
p867
assS'pet'
p868
(dp869
(S'Panasonic DMC-FZ50'
g4
(g6
S'\x16\xbd4\x02\xe3\xfb\x80?'
tRp870
tp871
(lp872
S'http://farm5.staticflickr.com/4137/4848824885_f16d79811c_q.jpg'
p873
aS'http://farm5.staticflickr.com/4094/4739078227_8f713b70a5_q.jpg'
p874
aS'http://farm5.staticflickr.com/4032/4699088828_358984f423_q.jpg'
p875
aS'http://farm2.staticflickr.com/1229/4724627094_23d8322a63_q.jpg'
p876
aS'http://farm2.staticflickr.com/1214/743308548_7c23a0d48c_q.jpg'
p877
aS'http://farm3.staticflickr.com/2325/2506805504_9bce654ba1_q.jpg'
p878
aS'http://farm4.staticflickr.com/3298/3193210225_36b4cb1091_q.jpg'
p879
aS'http://farm1.staticflickr.com/108/296385277_3593dfe0d5_q.jpg'
p880
aS'http://farm2.staticflickr.com/1297/538816553_171cd675c0_q.jpg'
p881
aS'http://farm2.staticflickr.com/1286/4692362083_d4095dfa58_q.jpg'
p882
as(S'Nikon D50'
g4
(g6
S'\x83M\x86\xd8\xd4\xa8\x80?'
tRp883
tp884
(lp885
S'http://farm1.staticflickr.com/113/315150549_e0bd87c63a_q.jpg'
p886
aS'http://farm1.staticflickr.com/83/236906781_77ed02e159_q.jpg'
p887
aS'http://farm1.staticflickr.com/177/409544142_4e24564848_q.jpg'
p888
aS'http://farm1.staticflickr.com/182/425784378_0922d92869_q.jpg'
p889
aS'http://farm1.staticflickr.com/103/415278538_d74b3ba80f_q.jpg'
p890
aS'http://farm1.staticflickr.com/57/212239845_d03ab01712_q.jpg'
p891
aS'http://farm1.staticflickr.com/169/437167504_242c11b8e4_q.jpg'
p892
aS'http://farm1.staticflickr.com/1/128333136_8726b34b87_q.jpg'
p893
aS'http://farm1.staticflickr.com/70/168665534_fe1839980a_q.jpg'
p894
aS'http://farm1.staticflickr.com/114/311276051_de67df04e8_q.jpg'
p895
as(S'Fujifilm FinePix F700'
g4
(g6
S'\xb1\xd6\xc7MLZ\x86?'
tRp896
tp897
(lp898
S'http://farm1.staticflickr.com/21/25940499_71d0ebc9af_q.jpg'
p899
aS'http://farm1.staticflickr.com/22/25535477_4044a9a1dc_q.jpg'
p900
aS'http://farm1.staticflickr.com/21/25477598_5e484d8498_q.jpg'
p901
as(S'Nikon D300'
g4
(g6
S'h\x0f\x8b+\x06\x05\x92?'
tRp902
tp903
(lp904
S'http://farm4.staticflickr.com/3360/3234047891_9f76ff89c0_q.jpg'
p905
aS'http://farm3.staticflickr.com/2781/4408420942_5ee46faa5b_q.jpg'
p906
aS'http://farm4.staticflickr.com/3167/2820202167_1cb91af9d9_q.jpg'
p907
aS'http://farm4.staticflickr.com/3071/2443621405_c3ae04f01a_q.jpg'
p908
aS'http://farm3.staticflickr.com/2318/2514777620_e6439e3e03_q.jpg'
p909
aS'http://farm4.staticflickr.com/3274/3280503099_c0592711d9_q.jpg'
p910
aS'http://farm4.staticflickr.com/3624/3375355505_f76a50f1b4_q.jpg'
p911
aS'http://farm4.staticflickr.com/3064/2736598856_4b99238a29_q.jpg'
p912
aS'http://farm4.staticflickr.com/3121/2862070585_c31d8ac957_q.jpg'
p913
aS'http://farm4.staticflickr.com/3086/3142938407_d0fd524636_q.jpg'
p914
as(S'Canon EOS 7D'
g4
(g6
S'A5G\xb0\x96D\x86?'
tRp915
tp916
(lp917
S'http://farm5.staticflickr.com/4090/5032964264_82127f0674_q.jpg'
p918
aS'http://farm5.staticflickr.com/4102/4960131742_81c3ae80e6_q.jpg'
p919
aS'http://farm5.staticflickr.com/4003/4488978501_b453de2c8e_q.jpg'
p920
aS'http://farm5.staticflickr.com/4053/4468416203_621888cefd_q.jpg'
p921
aS'http://farm5.staticflickr.com/4029/4714087875_59eef0c560_q.jpg'
p922
aS'http://farm5.staticflickr.com/4118/4890531355_c38eaaf109_q.jpg'
p923
aS'http://farm6.staticflickr.com/5181/5649916590_728ac21d6d_q.jpg'
p924
aS'http://farm5.staticflickr.com/4073/4893808422_8f0580450a_q.jpg'
p925
aS'http://farm3.staticflickr.com/2658/4060183747_4417c50e10_q.jpg'
p926
aS'http://farm5.staticflickr.com/4097/4848780189_d71f5559da_q.jpg'
p927
as(S'Nikon D80'
g4
(g6
S'\xe8\n\x8ca\xbeZ\x94?'
tRp928
tp929
(lp930
S'http://farm2.staticflickr.com/1238/798966354_80d761ee6c_q.jpg'
p931
aS'http://farm2.staticflickr.com/1188/1324990354_cf778706b9_q.jpg'
p932
aS'http://farm4.staticflickr.com/3522/3275688427_79735f5747_q.jpg'
p933
aS'http://farm3.staticflickr.com/2654/4080563248_90b81cdfbd_q.jpg'
p934
aS'http://farm1.staticflickr.com/203/472996506_3ec26aa069_q.jpg'
p935
aS'http://farm4.staticflickr.com/3100/2766188723_8f84f19956_q.jpg'
p936
aS'http://farm3.staticflickr.com/2228/2256339433_4bf3e1f8bc_q.jpg'
p937
aS'http://farm3.staticflickr.com/2144/2084413012_daae8ab0f9_q.jpg'
p938
aS'http://farm4.staticflickr.com/3348/3506005849_be4330828a_q.jpg'
p939
aS'http://farm4.staticflickr.com/3572/3367570576_311d678065_q.jpg'
p940
as(S'Canon EOS Digital Rebel XTi'
g4
(g6
S'\x91\x13\xdb\x0fg\x95\x83?'
tRp941
tp942
(lp943
S'http://farm3.staticflickr.com/2316/2268339194_d99faafc66_q.jpg'
p944
aS'http://farm4.staticflickr.com/3154/3058362894_07109b4db8_q.jpg'
p945
aS'http://farm3.staticflickr.com/2181/2106382580_d8e7996d8b_q.jpg'
p946
aS'http://farm4.staticflickr.com/3657/3416775001_ef5034a23b_q.jpg'
p947
aS'http://farm3.staticflickr.com/2254/2452951141_3c808799df_q.jpg'
p948
aS'http://farm2.staticflickr.com/1438/1483994006_ce42fa5932_q.jpg'
p949
aS'http://farm4.staticflickr.com/3078/2723280142_bb7c192bbc_q.jpg'
p950
aS'http://farm2.staticflickr.com/1432/641200639_41df3f343c_q.jpg'
p951
aS'http://farm4.staticflickr.com/3583/3297215476_58da42e0a5_q.jpg'
p952
aS'http://farm4.staticflickr.com/3005/2923379847_394e9989d4_q.jpg'
p953
as(S'Canon EOS 20D'
g4
(g6
S'H\xea\x13L4q\x88?'
tRp954
tp955
(lp956
S'http://farm4.staticflickr.com/3396/3551933175_9bbc7dc856_q.jpg'
p957
aS'http://farm4.staticflickr.com/3349/3259318314_e25c25092e_q.jpg'
p958
aS'http://farm4.staticflickr.com/3337/3327092860_1b37e25068_q.jpg'
p959
aS'http://farm2.staticflickr.com/1057/720377304_c844e737c8_q.jpg'
p960
aS'http://farm1.staticflickr.com/30/99543166_784ad98690_q.jpg'
p961
aS'http://farm4.staticflickr.com/3017/2692379236_da8db38f2c_q.jpg'
p962
aS'http://farm2.staticflickr.com/1283/671809620_b84777404d_q.jpg'
p963
aS'http://farm4.staticflickr.com/3554/3388575954_b98f9b40fa_q.jpg'
p964
aS'http://farm4.staticflickr.com/3495/3295608487_b6ab0c6a08_q.jpg'
p965
aS'http://farm3.staticflickr.com/2597/3704973257_3d817b5a48_q.jpg'
p966
as(S'Canon EOS 5D Mark II'
g4
(g6
S'\xa3D\xbf\xe6\xc54\x9f?'
tRp967
tp968
(lp969
S'http://farm3.staticflickr.com/2692/4554813852_9fdd3e4079_q.jpg'
p970
aS'http://farm6.staticflickr.com/5009/5204997413_89008e51b2_q.jpg'
p971
aS'http://farm5.staticflickr.com/4095/4830102485_547053b4b9_q.jpg'
p972
aS'http://farm6.staticflickr.com/5167/5246198799_04aab1857b_q.jpg'
p973
aS'http://farm6.staticflickr.com/5009/5284138807_cb5d5d8380_q.jpg'
p974
aS'http://farm5.staticflickr.com/4092/5061601785_509980e76f_q.jpg'
p975
aS'http://farm3.staticflickr.com/2600/4063439633_d48c71598c_q.jpg'
p976
aS'http://farm6.staticflickr.com/5059/5403904111_e0ac8fc707_q.jpg'
p977
aS'http://farm5.staticflickr.com/4139/4764725086_8e9a718df4_q.jpg'
p978
aS'http://farm3.staticflickr.com/2765/4410056537_3776f3a46e_q.jpg'
p979
as(S'Canon EOS D30'
g4
(g6
S'j\no\x81\xc9\xe0\x80?'
tRp980
tp981
(lp982
S'http://farm1.staticflickr.com/42/91957795_5a27611762_q.jpg'
p983
assS'architecture'
p984
(dp985
(S'Canon EOS 50D'
g4
(g6
S'X6Y\x90\x8aj\x8d?'
tRp986
tp987
(lp988
S'http://farm6.staticflickr.com/5150/5652814327_e9e3582057_q.jpg'
p989
aS'http://farm4.staticflickr.com/3441/3991947525_d6e8931b0e_q.jpg'
p990
aS'http://farm6.staticflickr.com/5282/5260067001_9a19b07b38_q.jpg'
p991
aS'http://farm6.staticflickr.com/5085/5323011079_074615ae81_q.jpg'
p992
aS'http://farm5.staticflickr.com/4123/4940977439_6a6319e7ac_q.jpg'
p993
aS'http://farm5.staticflickr.com/4097/4860203157_5c6a8c356c_q.jpg'
p994
aS'http://farm3.staticflickr.com/2624/4046320876_17d0ee4a18_q.jpg'
p995
aS'http://farm4.staticflickr.com/3309/3629349738_1cf509e902_q.jpg'
p996
aS'http://farm6.staticflickr.com/5050/5230843401_f24b4a7161_q.jpg'
p997
aS'http://farm3.staticflickr.com/2598/4082024567_22e0829889_q.jpg'
p998
as(S'Nikon D90'
g4
(g6
S'\xfc\xb0\x90\xc0\xe1\xb0\x89?'
tRp999
tp1000
(lp1001
S'http://farm5.staticflickr.com/4023/4677489081_b704262065_q.jpg'
p1002
aS'http://farm7.staticflickr.com/6184/6039996683_b1959bc10d_q.jpg'
p1003
aS'http://farm5.staticflickr.com/4147/5222837199_4dfb05713f_q.jpg'
p1004
aS'http://farm6.staticflickr.com/5069/5549675610_450ec6489a_q.jpg'
p1005
aS'http://farm5.staticflickr.com/4032/4686605893_8d8eb1b944_q.jpg'
p1006
aS'http://farm2.staticflickr.com/1428/4608613719_b24a0e7cab_q.jpg'
p1007
aS'http://farm3.staticflickr.com/2520/4149868983_23da1bd580_q.jpg'
p1008
aS'http://farm6.staticflickr.com/5258/5438326648_dc2223a181_q.jpg'
p1009
aS'http://farm6.staticflickr.com/5133/5480601290_a4a8ccab0a_q.jpg'
p1010
aS'http://farm7.staticflickr.com/6121/5930721220_a2131f6c7a_q.jpg'
p1011
as(S'Nikon D80'
g4
(g6
S'\xed5v~\xfa\xd4\x82?'
tRp1012
tp1013
(lp1014
S'http://farm4.staticflickr.com/3531/3460735584_86f38a48cf_q.jpg'
p1015
aS'http://farm3.staticflickr.com/2058/2075858881_ac9153eace_q.jpg'
p1016
aS'http://farm4.staticflickr.com/3369/3624337047_0acbcd3212_q.jpg'
p1017
aS'http://farm4.staticflickr.com/3480/3274440076_caace6849a_q.jpg'
p1018
aS'http://farm2.staticflickr.com/1397/5180874177_6a19f03051_q.jpg'
p1019
aS'http://farm2.staticflickr.com/1004/3170930667_e0e3fe743b_q.jpg'
p1020
aS'http://farm4.staticflickr.com/3639/3379370408_763467bf18_q.jpg'
p1021
aS'http://farm4.staticflickr.com/3354/3201849413_d34c96189e_q.jpg'
p1022
aS'http://farm5.staticflickr.com/4038/4580501158_6e253eb13e_q.jpg'
p1023
aS'http://farm4.staticflickr.com/3235/3104475168_e4050ba4d4_q.jpg'
p1024
as(S'Nikon D70s'
g4
(g6
S'\xa8\x9b\x10\x1d\x92\x87{?'
tRp1025
tp1026
(lp1027
S'http://farm4.staticflickr.com/3650/3637075385_2c58bfbc5b_q.jpg'
p1028
aS'http://farm5.staticflickr.com/4071/4519815148_1c41ac8809_q.jpg'
p1029
aS'http://farm3.staticflickr.com/2572/3994079347_b773c93899_q.jpg'
p1030
aS'http://farm5.staticflickr.com/4045/4620269512_2990c49472_q.jpg'
p1031
as(S'Samsung NX10'
g4
(g6
S'\xbet\xcc\x95\xad\xa5\x84?'
tRp1032
tp1033
(lp1034
S'http://farm8.staticflickr.com/7204/6937667885_f69670ab80_q.jpg'
p1035
aS'http://farm6.staticflickr.com/5257/5431367427_b5f4afcc92_q.jpg'
p1036
aS'http://farm6.staticflickr.com/5284/5361582676_792e7a6d61_q.jpg'
p1037
aS'http://farm6.staticflickr.com/5245/5375318069_72c97ce82b_q.jpg'
p1038
as(S'Canon PowerShot A610'
g4
(g6
S'\xddB\x87\xa6`\xd2y?'
tRp1039
tp1040
(lp1041
S'http://farm4.staticflickr.com/3104/2679404219_680d80c9e8_q.jpg'
p1042
aS'http://farm4.staticflickr.com/3168/3012575580_cf3f37d110_q.jpg'
p1043
aS'http://farm4.staticflickr.com/3142/3069869055_557bfb2004_q.jpg'
p1044
aS'http://farm3.staticflickr.com/2508/3720353467_c28d4ec140_q.jpg'
p1045
aS'http://farm4.staticflickr.com/3546/3450663646_6fcdcebdca_q.jpg'
p1046
aS'http://farm4.staticflickr.com/3290/3125049087_038267b279_q.jpg'
p1047
aS'http://farm4.staticflickr.com/3093/2616624476_9f064d8114_q.jpg'
p1048
aS'http://farm5.staticflickr.com/4072/4714779148_0c25cc52f0_q.jpg'
p1049
aS'http://farm5.staticflickr.com/4100/4826856491_a05ded79dd_q.jpg'
p1050
aS'http://farm4.staticflickr.com/3115/2637833061_237e142d66_q.jpg'
p1051
as(S'Canon EOS 5D Mark II'
g4
(g6
S'\x7f\xf1Z\x87\x90c\xa4?'
tRp1052
tp1053
(lp1054
S'http://farm8.staticflickr.com/7161/6792493019_bd47a72c98_q.jpg'
p1055
aS'http://farm4.staticflickr.com/3300/3551510533_a2f94475c6_q.jpg'
p1056
aS'http://farm5.staticflickr.com/4002/4670017326_33f6ca5da2_q.jpg'
p1057
aS'http://farm5.staticflickr.com/4071/4316918957_08195a87da_q.jpg'
p1058
aS'http://farm6.staticflickr.com/5187/5863114381_53b95aeaae_q.jpg'
p1059
aS'http://farm3.staticflickr.com/2492/3741184301_bb49eb8e63_q.jpg'
p1060
aS'http://farm7.staticflickr.com/6222/6227471705_3a3a8f4163_q.jpg'
p1061
aS'http://farm3.staticflickr.com/2490/3864322393_496e6db414_q.jpg'
p1062
aS'http://farm5.staticflickr.com/4016/4290604971_5f8c79d369_q.jpg'
p1063
aS'http://farm8.staticflickr.com/7208/6967423963_81bd6d3fcf_q.jpg'
p1064
as(S'Canon EOS 5D'
g4
(g6
S'\xcfR9\x175\x13\x92?'
tRp1065
tp1066
(lp1067
S'http://farm1.staticflickr.com/230/497851367_c5e4ac7470_q.jpg'
p1068
aS'http://farm1.staticflickr.com/50/130601225_6a6690103f_q.jpg'
p1069
aS'http://farm4.staticflickr.com/3005/2969769911_6cbcc66cdf_q.jpg'
p1070
aS'http://farm3.staticflickr.com/2650/4048257256_8447019fd3_q.jpg'
p1071
aS'http://farm5.staticflickr.com/4119/4802048642_791ee9c494_q.jpg'
p1072
aS'http://farm4.staticflickr.com/3142/2784224532_695072f78d_q.jpg'
p1073
aS'http://farm4.staticflickr.com/3478/4063735883_60e99b1d9a_q.jpg'
p1074
aS'http://farm3.staticflickr.com/2125/4514268776_1cee6b4efc_q.jpg'
p1075
aS'http://farm3.staticflickr.com/2731/4100874099_3dcde0cee1_q.jpg'
p1076
aS'http://farm4.staticflickr.com/3563/3467448351_53c3ecd14d_q.jpg'
p1077
as(S'Nikon D300'
g4
(g6
S'\x97:;%\x153\x86?'
tRp1078
tp1079
(lp1080
S'http://farm6.staticflickr.com/5323/7222284384_10d64ab3c2_q.jpg'
p1081
aS'http://farm4.staticflickr.com/3211/2907154127_277e485368_q.jpg'
p1082
aS'http://farm6.staticflickr.com/5061/5584613304_841ae30681_q.jpg'
p1083
aS'http://farm6.staticflickr.com/5127/5211634203_15e920fd19_q.jpg'
p1084
aS'http://farm3.staticflickr.com/2335/2363635002_9a79f284c8_q.jpg'
p1085
aS'http://farm4.staticflickr.com/3033/2736143814_e6ba364c03_q.jpg'
p1086
aS'http://farm4.staticflickr.com/3563/3281086048_f31d611f50_q.jpg'
p1087
aS'http://farm4.staticflickr.com/3297/3517963338_bdde241eb2_q.jpg'
p1088
aS'http://farm3.staticflickr.com/2630/4084739535_a2ee5d92d0_q.jpg'
p1089
aS'http://farm8.staticflickr.com/7070/6823753940_67cc8e748b_q.jpg'
p1090
as(S'Nikon D700'
g4
(g6
S'tG\xab_\xa7`\xae?'
tRp1091
tp1092
(lp1093
S'http://farm3.staticflickr.com/2621/3998074824_98e1420179_q.jpg'
p1094
aS'http://farm2.staticflickr.com/1103/4733396802_4d501d29ae_q.jpg'
p1095
aS'http://farm5.staticflickr.com/4116/4882097239_d9e30a2c48_q.jpg'
p1096
aS'http://farm8.staticflickr.com/7093/7190272344_a10e3e36f3_q.jpg'
p1097
aS'http://farm8.staticflickr.com/7234/6937148458_1bc5fd9f96_q.jpg'
p1098
aS'http://farm7.staticflickr.com/6011/6002077164_a04f7cd338_q.jpg'
p1099
aS'http://farm9.staticflickr.com/8322/8032195208_a366cf6a63_q.jpg'
p1100
aS'http://farm9.staticflickr.com/8159/7160373991_9d6716105b_q.jpg'
p1101
aS'http://farm9.staticflickr.com/8034/7954142188_28e492009d_q.jpg'
p1102
aS'http://farm4.staticflickr.com/3125/3141819296_02389245c5_q.jpg'
p1103
assS'technology'
p1104
(dp1105
(S'Canon EOS 50D'
g4
(g6
S'\\\x18\xc4n\xa1]|?'
tRp1106
tp1107
(lp1108
S'http://farm5.staticflickr.com/4052/4379541742_604baf0eff_q.jpg'
p1109
aS'http://farm8.staticflickr.com/7175/6689961179_3305b55f87_q.jpg'
p1110
aS'http://farm2.staticflickr.com/1432/5104204268_44a6121f32_q.jpg'
p1111
aS'http://farm9.staticflickr.com/8436/7997263468_3df4485238_q.jpg'
p1112
aS'http://farm6.staticflickr.com/5140/5400748226_4e5c1ebc50_q.jpg'
p1113
aS'http://farm3.staticflickr.com/2612/4196213517_ab18158646_q.jpg'
p1114
aS'http://farm5.staticflickr.com/4024/4547044744_5dfaef89fe_q.jpg'
p1115
aS'http://farm3.staticflickr.com/2517/4177970851_b3025b184c_q.jpg'
p1116
aS'http://farm6.staticflickr.com/5221/5573642693_3e3aa01dd4_q.jpg'
p1117
as(S'Nikon D90'
g4
(g6
S'\xe7\x80\xc2\x0e\xeb|\x90?'
tRp1118
tp1119
(lp1120
S'http://farm5.staticflickr.com/4078/4746328734_ee3a55687b_q.jpg'
p1121
aS'http://farm8.staticflickr.com/7265/6988620352_4b7729b6c4_q.jpg'
p1122
aS'http://farm3.staticflickr.com/2611/4029063327_479a2d43ce_q.jpg'
p1123
aS'http://farm9.staticflickr.com/8329/8447100229_2e617aa77f_q.jpg'
p1124
aS'http://farm5.staticflickr.com/4037/4310691752_bfeb7ef764_q.jpg'
p1125
aS'http://farm6.staticflickr.com/5454/7419574462_220bc56709_q.jpg'
p1126
aS'http://farm9.staticflickr.com/8174/8043351101_036b1ef292_q.jpg'
p1127
aS'http://farm5.staticflickr.com/4101/4754659093_6811babd47_q.jpg'
p1128
aS'http://farm5.staticflickr.com/4003/4304919448_cfc2be6c33_q.jpg'
p1129
aS'http://farm5.staticflickr.com/4142/4743538808_afe8cfb1fb_q.jpg'
p1130
as(S'Canon EOS 20D'
g4
(g6
S'\x95\xdf\x19\x17\x8a-|?'
tRp1131
tp1132
(lp1133
S'http://farm1.staticflickr.com/166/424344637_ed37869cd9_q.jpg'
p1134
aS'http://farm4.staticflickr.com/3156/2505356964_471732e7a0_q.jpg'
p1135
aS'http://farm1.staticflickr.com/36/113083139_6176b1c93f_q.jpg'
p1136
aS'http://farm1.staticflickr.com/89/254179216_f3e18bd3c5_q.jpg'
p1137
aS'http://farm2.staticflickr.com/1359/4730216931_10efe580aa_q.jpg'
p1138
aS'http://farm3.staticflickr.com/2299/2077042517_7d7fa3829d_q.jpg'
p1139
aS'http://farm1.staticflickr.com/24/50792564_1f90b9511f_q.jpg'
p1140
aS'http://farm4.staticflickr.com/3199/2513619516_3d8d9bf09c_q.jpg'
p1141
aS'http://farm1.staticflickr.com/21/34708904_96f530d2e1_q.jpg'
p1142
aS'http://farm1.staticflickr.com/24/102477019_57c5df253b_q.jpg'
p1143
as(S'Nikon D700'
g4
(g6
S'W\xeb\x06\xe9\x89\xe0|?'
tRp1144
tp1145
(lp1146
S'http://farm7.staticflickr.com/6039/6391481409_f63b3d6200_q.jpg'
p1147
aS'http://farm7.staticflickr.com/6065/6076187637_8f6bc4a658_q.jpg'
p1148
aS'http://farm9.staticflickr.com/8221/8376817963_1176af016b_q.jpg'
p1149
aS'http://farm9.staticflickr.com/8220/8382546736_a06f6c91bf_q.jpg'
p1150
aS'http://farm8.staticflickr.com/7144/6594115171_dd719c4fb4_q.jpg'
p1151
aS'http://farm7.staticflickr.com/6058/6321258740_38512726a5_q.jpg'
p1152
aS'http://farm5.staticflickr.com/4073/4818053786_95700f9369_q.jpg'
p1153
aS'http://farm5.staticflickr.com/4063/4681452141_28c52662c5_q.jpg'
p1154
aS'http://farm4.staticflickr.com/3047/3101610876_a573ae5087_q.jpg'
p1155
aS'http://farm8.staticflickr.com/7053/7109932365_367e49f6cb_q.jpg'
p1156
as(S'Samsung NX10'
g4
(g6
S'$]\x98]\x17\xa1\x93?'
tRp1157
tp1158
(lp1159
S'http://farm2.staticflickr.com/1298/5188694473_c9670571d7_q.jpg'
p1160
aS'http://farm6.staticflickr.com/5055/5571533600_dfabd43d19_q.jpg'
p1161
aS'http://farm7.staticflickr.com/6038/6344533890_630a1dc9e7_q.jpg'
p1162
aS'http://farm6.staticflickr.com/5245/5375318069_72c97ce82b_q.jpg'
p1163
aS'http://farm5.staticflickr.com/4132/5187664239_a3ac902455_q.jpg'
p1164
aS'http://farm5.staticflickr.com/4085/5188049459_a7d34f021d_q.jpg'
p1165
as(S'Canon PowerShot A610'
g4
(g6
S'b\x17C\x95\xa1\xd4\x7f?'
tRp1166
tp1167
(lp1168
S'http://farm1.staticflickr.com/178/408167399_2ed8555174_q.jpg'
p1169
aS'http://farm9.staticflickr.com/8174/7987625741_dcfb01cdbe_q.jpg'
p1170
as(S'Canon EOS 40D'
g4
(g6
S'\xe6\xae\x90\x7f2\xd5\x82?'
tRp1171
tp1172
(lp1173
S'http://farm4.staticflickr.com/3459/3862567972_9ee6c82855_q.jpg'
p1174
aS'http://farm4.staticflickr.com/3046/2829381653_b519f9c3b0_q.jpg'
p1175
aS'http://farm7.staticflickr.com/6048/6246688704_5f768b78b9_q.jpg'
p1176
aS'http://farm9.staticflickr.com/8472/8123509813_2e5c8c30d0_q.jpg'
p1177
aS'http://farm3.staticflickr.com/2577/4057225035_30d2e48ec6_q.jpg'
p1178
aS'http://farm8.staticflickr.com/7088/7231297984_f77b55007a_q.jpg'
p1179
aS'http://farm6.staticflickr.com/5032/5851802015_108cb55273_q.jpg'
p1180
aS'http://farm2.staticflickr.com/1332/4727097556_5d6ae1f7cc_q.jpg'
p1181
aS'http://farm9.staticflickr.com/8187/8113817723_041576a6c3_q.jpg'
p1182
aS'http://farm3.staticflickr.com/2483/5775391149_0bbe8beaf3_q.jpg'
p1183
as(S'Nikon D200'
g4
(g6
S'\x86a1\xe5\xcb\xb1}?'
tRp1184
tp1185
(lp1186
S'http://farm1.staticflickr.com/132/398982678_ed3e34b300_q.jpg'
p1187
aS'http://farm3.staticflickr.com/2251/1802440919_ee339b4c49_q.jpg'
p1188
aS'http://farm1.staticflickr.com/122/308737777_0829b0b96a_q.jpg'
p1189
aS'http://farm6.staticflickr.com/5105/5616392919_9c60ea542c_q.jpg'
p1190
aS'http://farm2.staticflickr.com/1204/1409428084_19263e805d_q.jpg'
p1191
aS'http://farm3.staticflickr.com/2183/2242496143_9e02e42697_q.jpg'
p1192
aS'http://farm4.staticflickr.com/3572/3858481174_b52a1fc1ae_q.jpg'
p1193
aS'http://farm8.staticflickr.com/7083/7044286789_be97cdd78c_q.jpg'
p1194
as(S'Canon EOS 5D Mark II'
g4
(g6
S'\r\xae\xb8\xa4\xa4?\xa2?'
tRp1195
tp1196
(lp1197
S'http://farm3.staticflickr.com/2520/3858651584_eddd31e019_q.jpg'
p1198
aS'http://farm6.staticflickr.com/5148/5640350481_f07be8051b_q.jpg'
p1199
aS'http://farm9.staticflickr.com/8369/8513237804_68912d9a01_q.jpg'
p1200
aS'http://farm8.staticflickr.com/7184/6888244073_5e579cff0d_q.jpg'
p1201
aS'http://farm3.staticflickr.com/2792/4178715310_837a62bc3e_q.jpg'
p1202
aS'http://farm4.staticflickr.com/3535/3943404741_c55d42d7dc_q.jpg'
p1203
aS'http://farm3.staticflickr.com/2684/4212637944_c93c1b01c1_q.jpg'
p1204
aS'http://farm8.staticflickr.com/7039/6927599687_2195d057ee_q.jpg'
p1205
aS'http://farm8.staticflickr.com/7018/6465774817_61f7469493_q.jpg'
p1206
aS'http://farm2.staticflickr.com/1427/5107396955_57896d0cda_q.jpg'
p1207
as(S'Nikon D3X'
g4
(g6
S'\xe3^\x9c\xa0\xc4\xb4\x88?'
tRp1208
tp1209
(lp1210
S'http://farm5.staticflickr.com/4118/4918798618_0be8405d4e_q.jpg'
p1211
aS'http://farm4.staticflickr.com/3573/5699183849_34e80fb506_q.jpg'
p1212
aS'http://farm3.staticflickr.com/2564/4077315602_d0eb5ffde4_q.jpg'
p1213
aS'http://farm4.staticflickr.com/3308/3232133635_93aee2f4f6_q.jpg'
p1214
aS'http://farm5.staticflickr.com/4118/4921849287_c14f0aa6b4_q.jpg'
p1215
aS'http://farm5.staticflickr.com/4059/5147091048_dc34e0bf50_q.jpg'
p1216
aS'http://farm6.staticflickr.com/5275/5914448597_8690af9692_q.jpg'
p1217
aS'http://farm3.staticflickr.com/2403/5811328622_51ec6b62e8_q.jpg'
p1218
aS'http://farm3.staticflickr.com/2635/4045813826_aa5f743df6_q.jpg'
p1219
aS'http://farm7.staticflickr.com/6093/6350750431_1f87713423_q.jpg'
p1220
assS'landscape'
p1221
(dp1222
(S'Nikon D7000'
g4
(g6
S"\xebg\xe2\r\xb1'\x96?"
tRp1223
tp1224
(lp1225
S'http://farm6.staticflickr.com/5304/5868379843_b324e801db_q.jpg'
p1226
aS'http://farm8.staticflickr.com/7270/6929704538_9deeb5ca2a_q.jpg'
p1227
aS'http://farm8.staticflickr.com/7076/7175592711_13123f75ce_q.jpg'
p1228
aS'http://farm8.staticflickr.com/7157/6485691681_bd23a14457_q.jpg'
p1229
aS'http://farm7.staticflickr.com/6081/6096924690_baf01f9079_q.jpg'
p1230
aS'http://farm7.staticflickr.com/6197/6105682832_433bf7b8bb_q.jpg'
p1231
aS'http://farm8.staticflickr.com/7016/6734851149_244e778783_q.jpg'
p1232
aS'http://farm8.staticflickr.com/7207/6855408549_ee58fa7c00_q.jpg'
p1233
aS'http://farm9.staticflickr.com/8503/8394691990_4e1cd8611f_q.jpg'
p1234
aS'http://farm4.staticflickr.com/3539/5787351070_cf60f8b5cf_q.jpg'
p1235
as(S'Canon PowerShot G11'
g4
(g6
S'\xd4\xf1J\x82\xba\xb1\x87?'
tRp1236
tp1237
(lp1238
S'http://farm8.staticflickr.com/7280/8151226429_8743c8f386_q.jpg'
p1239
aS'http://farm7.staticflickr.com/6193/6042343394_0ea3b9830c_q.jpg'
p1240
aS'http://farm7.staticflickr.com/6226/6364169419_edbe0061b2_q.jpg'
p1241
aS'http://farm8.staticflickr.com/7100/7216746262_3e5fffe975_q.jpg'
p1242
aS'http://farm9.staticflickr.com/8172/8047074224_40f11ba1f0_q.jpg'
p1243
aS'http://farm9.staticflickr.com/8487/8197203120_24d91fe32c_q.jpg'
p1244
aS'http://farm6.staticflickr.com/5109/5621817885_627fe4c451_q.jpg'
p1245
aS'http://farm9.staticflickr.com/8441/7988768886_1bccc52ddc_q.jpg'
p1246
aS'http://farm8.staticflickr.com/7099/6986657744_f3846be15e_q.jpg'
p1247
aS'http://farm7.staticflickr.com/6100/6337916402_769058647c_q.jpg'
p1248
as(S'Nikon D90'
g4
(g6
S'\x9d\x1c\xb6\xf7\x9b\xbd\xa1?'
tRp1249
tp1250
(lp1251
S'http://farm5.staticflickr.com/4143/4923613961_3de79bef7c_q.jpg'
p1252
aS'http://farm5.staticflickr.com/4116/4859208681_fb9fd9934c_q.jpg'
p1253
aS'http://farm7.staticflickr.com/6184/6039996683_b1959bc10d_q.jpg'
p1254
aS'http://farm5.staticflickr.com/4074/4938087989_6aab6ba496_q.jpg'
p1255
aS'http://farm6.staticflickr.com/5207/5295580685_6cf9f40564_q.jpg'
p1256
aS'http://farm6.staticflickr.com/5314/5854278299_f90bd9c3d4_q.jpg'
p1257
aS'http://farm8.staticflickr.com/7001/6445595687_ba9628128f_q.jpg'
p1258
aS'http://farm5.staticflickr.com/4098/4829428379_1c71cc88e2_q.jpg'
p1259
aS'http://farm8.staticflickr.com/7055/6851737203_44f61cddf7_q.jpg'
p1260
aS'http://farm8.staticflickr.com/7171/6757727871_a3766e16a4_q.jpg'
p1261
as(S'Nikon D800'
g4
(g6
S'~{\xb1c\x85$\x91?'
tRp1262
tp1263
(lp1264
S'http://farm9.staticflickr.com/8110/8622213544_9fab1b8d2f_q.jpg'
p1265
aS'http://farm9.staticflickr.com/8242/8594720223_f33cfbe503_q.jpg'
p1266
aS'http://farm9.staticflickr.com/8003/7424908726_ca565b2e7a_q.jpg'
p1267
aS'http://farm9.staticflickr.com/8391/8593029534_33fd58dbb5_q.jpg'
p1268
aS'http://farm9.staticflickr.com/8235/8585847956_39864361e3_q.jpg'
p1269
aS'http://farm9.staticflickr.com/8487/8158094262_10540cde83_q.jpg'
p1270
aS'http://farm9.staticflickr.com/8367/8563954803_0c2624d6c1_q.jpg'
p1271
aS'http://farm9.staticflickr.com/8241/8615934775_7b0b345826_q.jpg'
p1272
aS'http://farm8.staticflickr.com/7122/7845106038_a8d4e2521d_q.jpg'
p1273
aS'http://farm9.staticflickr.com/8282/7830078788_a25b118174_q.jpg'
p1274
as(S'Canon EOS 7D'
g4
(g6
S'\xed(\xff\x0f\x0e\xd9}?'
tRp1275
tp1276
(lp1277
S'http://farm7.staticflickr.com/6024/5957182089_533fb7d418_q.jpg'
p1278
aS'http://farm6.staticflickr.com/5245/5231945478_ba55abaf51_q.jpg'
p1279
aS'http://farm7.staticflickr.com/6191/6074489451_8ff81fa57c_q.jpg'
p1280
aS'http://farm9.staticflickr.com/8357/8325886238_2e74787c32_q.jpg'
p1281
aS'http://farm7.staticflickr.com/6140/6009619546_cf1965362c_q.jpg'
p1282
aS'http://farm8.staticflickr.com/7261/6898671640_80c9c30010_q.jpg'
p1283
aS'http://farm9.staticflickr.com/8249/8515909256_c1b8fbce64_q.jpg'
p1284
as(S'Canon EOS 5D'
g4
(g6
S"\xf4\x8d\xaa\x0b\xe2'\x82?"
tRp1285
tp1286
(lp1287
S'http://farm3.staticflickr.com/2070/5736535986_bfd52168f9_q.jpg'
p1288
aS'http://farm6.staticflickr.com/5102/5573338779_d920412f21_q.jpg'
p1289
aS'http://farm6.staticflickr.com/5250/5362622315_102861afa9_q.jpg'
p1290
aS'http://farm5.staticflickr.com/4145/4841456241_04ba83c0aa_q.jpg'
p1291
aS'http://farm6.staticflickr.com/5206/5382211481_64aa7e0f5c_q.jpg'
p1292
aS'http://farm6.staticflickr.com/5229/5692346189_3082eedc02_q.jpg'
p1293
aS'http://farm6.staticflickr.com/5216/5431637314_9d6376f5e6_q.jpg'
p1294
aS'http://farm7.staticflickr.com/6031/6276153988_085bbff331_q.jpg'
p1295
aS'http://farm6.staticflickr.com/5026/5630883586_1f5cbeb29c_q.jpg'
p1296
aS'http://farm6.staticflickr.com/5214/5520457320_498de61a9e_q.jpg'
p1297
as(S'Nikon D300'
g4
(g6
S'!\xed\xff\xbf5\xce\x93?'
tRp1298
tp1299
(lp1300
S'http://farm5.staticflickr.com/4113/4971114917_e8709386ec_q.jpg'
p1301
aS'http://farm6.staticflickr.com/5188/5567810976_2282d22e48_q.jpg'
p1302
aS'http://farm6.staticflickr.com/5171/5421126386_552eda819d_q.jpg'
p1303
aS'http://farm5.staticflickr.com/4099/5413219165_ed5bb58366_q.jpg'
p1304
aS'http://farm8.staticflickr.com/7144/6695766815_76f1fc4316_q.jpg'
p1305
aS'http://farm7.staticflickr.com/6216/6246537367_b302eed1f2_q.jpg'
p1306
aS'http://farm9.staticflickr.com/8481/8209550398_6b0b2f824a_q.jpg'
p1307
aS'http://farm5.staticflickr.com/4087/5172486194_4cc3999cb9_q.jpg'
p1308
aS'http://farm8.staticflickr.com/7018/6821644239_0d806b279a_q.jpg'
p1309
aS'http://farm2.staticflickr.com/1422/5152017618_2aac287e45_q.jpg'
p1310
as(S'Canon EOS 50D'
g4
(g6
S'\xa4\rkL\xf9\xb3\x95?'
tRp1311
tp1312
(lp1313
S'http://farm6.staticflickr.com/5130/5342325589_3eece1bcb4_q.jpg'
p1314
aS'http://farm6.staticflickr.com/5048/5372399116_96b2c385f7_q.jpg'
p1315
aS'http://farm3.staticflickr.com/2487/5718837564_a8e27c5668_q.jpg'
p1316
aS'http://farm6.staticflickr.com/5043/5223733307_92fc2223ef_q.jpg'
p1317
aS'http://farm2.staticflickr.com/1242/5122474993_401191bd36_q.jpg'
p1318
aS'http://farm6.staticflickr.com/5285/5217900350_c9e329cbf9_q.jpg'
p1319
aS'http://farm6.staticflickr.com/5267/5625965457_f8cfbfda58_q.jpg'
p1320
aS'http://farm5.staticflickr.com/4139/4929220497_02275ee6a8_q.jpg'
p1321
aS'http://farm6.staticflickr.com/5052/5424584715_d5678970df_q.jpg'
p1322
aS'http://farm6.staticflickr.com/5044/5270083478_4336c1f4e7_q.jpg'
p1323
as(S'Nikon D700'
g4
(g6
S'\xa3\xe4\xcf!\xa1\x96\xa0?'
tRp1324
tp1325
(lp1326
S'http://farm7.staticflickr.com/6043/5907192490_4848b463e6_q.jpg'
p1327
aS'http://farm8.staticflickr.com/7093/7190272344_a10e3e36f3_q.jpg'
p1328
aS'http://farm7.staticflickr.com/6169/6166839745_e4a5da6e6b_q.jpg'
p1329
aS'http://farm9.staticflickr.com/8322/8032195208_a366cf6a63_q.jpg'
p1330
aS'http://farm2.staticflickr.com/1384/5164472892_6c33cd1922_q.jpg'
p1331
aS'http://farm9.staticflickr.com/8517/8498895234_63bb11a55d_q.jpg'
p1332
aS'http://farm9.staticflickr.com/8340/8188108846_321aa65798_q.jpg'
p1333
aS'http://farm5.staticflickr.com/4130/5184313777_17c3c21fae_q.jpg'
p1334
aS'http://farm9.staticflickr.com/8036/8039719584_84c5bf6a26_q.jpg'
p1335
aS'http://farm6.staticflickr.com/5187/5848154940_34c0641107_q.jpg'
p1336
as(S'Canon EOS 5D Mark II'
g4
(g6
S'\x00/\xcd\xff\xa7&\xba?'
tRp1337
tp1338
(lp1339
S'http://farm8.staticflickr.com/7173/6550093815_2c0ba20f71_q.jpg'
p1340
aS'http://farm8.staticflickr.com/7024/6788175491_a6aaa5bd19_q.jpg'
p1341
aS'http://farm6.staticflickr.com/5191/5887313039_51474becb4_q.jpg'
p1342
aS'http://farm6.staticflickr.com/5042/5345973796_0f4b3acb37_q.jpg'
p1343
aS'http://farm5.staticflickr.com/4145/4997428776_b4071ae9c9_q.jpg'
p1344
aS'http://farm6.staticflickr.com/5212/5512246194_68fe6f8582_q.jpg'
p1345
aS'http://farm7.staticflickr.com/6149/5935494090_8d42c1c153_q.jpg'
p1346
aS'http://farm7.staticflickr.com/6221/6343009769_4870362f4f_q.jpg'
p1347
aS'http://farm4.staticflickr.com/3314/5735893153_f99df51a9f_q.jpg'
p1348
aS'http://farm8.staticflickr.com/7169/6634250857_6a12f089fb_q.jpg'
p1349
ass.